

Microchip MPLAB XC8 Assembler V2.32 build 20210201212658 
                                                                                               Sun Sep 11 18:54:33 2022

Microchip MPLAB XC8 C Compiler v2.32 (Free license) build 20210201212658 Og1 
     1                           	processor	18F4550
     2                           	fnconf	rparam,??,?,0
     3                           	pagewidth 120
     4                           	opt	flic
     5                           	psect	idataBIGRAM,global,class=CODE,delta=1,noexec
     6                           	psect	mediumconst,global,reloc=2,class=MEDIUMCONST,delta=1,noexec
     7                           	psect	cinit,global,reloc=2,class=CODE,delta=1
     8                           	psect	bssCOMRAM,global,class=COMRAM,space=1,delta=1,lowdata,noexec
     9                           	psect	dataBIGRAM,global,class=BIGRAM,space=1,delta=1,noexec
    10                           	psect	cstackCOMRAM,global,class=COMRAM,space=1,delta=1,lowdata,noexec
    11                           	psect	text0,global,reloc=2,class=CODE,delta=1
    12                           	psect	text1,global,reloc=2,class=CODE,delta=1
    13                           	psect	text2,global,reloc=2,class=CODE,delta=1
    14                           	psect	text3,global,reloc=2,class=CODE,delta=1
    15                           	psect	text4,global,reloc=2,class=CODE,delta=1
    16                           	psect	text5,global,reloc=2,class=CODE,delta=1
    17                           	psect	text6,global,reloc=2,class=CODE,delta=1
    18                           	psect	text7,global,reloc=2,class=CODE,delta=1
    19                           	psect	text8,global,reloc=2,class=CODE,delta=1
    20                           	psect	text9,global,reloc=2,class=CODE,delta=1
    21                           	psect	text10,global,reloc=2,class=CODE,delta=1
    22                           	psect	text11,global,reloc=2,class=CODE,delta=1
    23                           	psect	text12,global,reloc=2,class=CODE,delta=1
    24                           	psect	text13,global,reloc=2,class=CODE,delta=1
    25                           	psect	text14,global,reloc=2,class=CODE,delta=1
    26                           	psect	text15,global,reloc=2,class=CODE,delta=1
    27                           	psect	text16,global,reloc=2,class=CODE,delta=1
    28                           	psect	text17,global,reloc=2,class=CODE,delta=1
    29                           	psect	text18,global,reloc=2,class=CODE,delta=1
    30                           	psect	intsave_regs,global,class=BIGRAM,space=1,delta=1,noexec
    31                           	psect	rparam,global,class=COMRAM,space=1,delta=1,noexec
    32                           	psect	idloc,global,abs,ovrld,class=IDLOC,space=5,delta=1,noexec
    33                           	psect	config,global,abs,ovrld,class=CONFIG,space=4,delta=1,noexec
    34  0000                     
    35                           ; Version 2.20
    36                           ; Generated 12/02/2020 GMT
    37                           ; 
    38                           ; Copyright © 2020, Microchip Technology Inc. and its subsidiaries ("Microchip")
    39                           ; All rights reserved.
    40                           ; 
    41                           ; This software is developed by Microchip Technology Inc. and its subsidiaries ("Microch
      +                          ip").
    42                           ; 
    43                           ; Redistribution and use in source and binary forms, with or without modification, are
    44                           ; permitted provided that the following conditions are met:
    45                           ; 
    46                           ;     1. Redistributions of source code must retain the above copyright notice, this lis
      +                          t of
    47                           ;        conditions and the following disclaimer.
    48                           ; 
    49                           ;     2. Redistributions in binary form must reproduce the above copyright notice, this 
      +                          list
    50                           ;        of conditions and the following disclaimer in the documentation and/or other
    51                           ;        materials provided with the distribution.
    52                           ; 
    53                           ;     3. Microchip's name may not be used to endorse or promote products derived from th
      +                          is
    54                           ;        software without specific prior written permission.
    55                           ; 
    56                           ; THIS SOFTWARE IS PROVIDED BY MICROCHIP "AS IS" AND ANY EXPRESS OR IMPLIED WARRANTIES,
    57                           ; INCLUDING, BUT NOT LIMITED TO, THE IMPLIED WARRANTIES OF MERCHANTABILITY AND FITNESS F
      +                          OR
    58                           ; PURPOSE ARE DISCLAIMED.  IN NO EVENT SHALL MICROCHIP BE LIABLE FOR ANY DIRECT, INDIREC
      +                          T,
    59                           ; INCIDENTAL, SPECIAL, EXEMPLARY, OR CONSEQUENTIAL DAMAGES (INCLUDING BUT NOT LIMITED TO
    60                           ; PROCUREMENT OF SUBSTITUTE GOODS OR SERVICES; LOSS OF USE, DATA OR PROFITS; OR BUSINESS
    61                           ; INTERRUPTION) HOWSOEVER CAUSED AND ON ANY THEORY OF LIABILITY, WHETHER IN CONTRACT, ST
      +                          RICT
    62                           ; LIABILITY, OR TORT (INCLUDING NEGLIGENCE OR OTHERWISE) ARISING IN ANY WAY OUT OF THE U
      +                          SE OF
    63                           ; THIS SOFTWARE, EVEN IF ADVISED OF THE POSSIBILITY OF SUCH DAMAGE.
    64                           ; 
    65                           ; 
    66                           ; Code-generator required, PIC18F4550 Definitions
    67                           ; 
    68                           ; SFR Addresses
    69  0000                     
    70                           	psect	idataBIGRAM
    71  0077C0                     __pidataBIGRAM:
    72                           	callstack 0
    73                           
    74                           ;initializer for _tabela_ascii
    75  0077C0  00                 	db	0
    76  0077C1  00                 	db	0
    77  0077C2  00                 	db	0
    78  0077C3  00                 	db	0
    79  0077C4  00                 	db	0
    80  0077C5  00                 	db	0
    81  0077C6  00                 	db	0
    82  0077C7  5F                 	db	95
    83  0077C8  00                 	db	0
    84  0077C9  00                 	db	0
    85  0077CA  00                 	db	0
    86  0077CB  07                 	db	7
    87  0077CC  00                 	db	0
    88  0077CD  07                 	db	7
    89  0077CE  00                 	db	0
    90  0077CF  14                 	db	20
    91  0077D0  7F                 	db	127
    92  0077D1  14                 	db	20
    93  0077D2  7F                 	db	127
    94  0077D3  14                 	db	20
    95  0077D4  24                 	db	36
    96  0077D5  2A                 	db	42
    97  0077D6  7F                 	db	127
    98  0077D7  2A                 	db	42
    99  0077D8  12                 	db	18
   100  0077D9  23                 	db	35
   101  0077DA  13                 	db	19
   102  0077DB  08                 	db	8
   103  0077DC  64                 	db	100
   104  0077DD  62                 	db	98
   105  0077DE  36                 	db	54
   106  0077DF  49                 	db	73
   107  0077E0  55                 	db	85
   108  0077E1  22                 	db	34
   109  0077E2  50                 	db	80
   110  0077E3  00                 	db	0
   111  0077E4  05                 	db	5
   112  0077E5  03                 	db	3
   113  0077E6  00                 	db	0
   114  0077E7  00                 	db	0
   115  0077E8  00                 	db	0
   116  0077E9  1C                 	db	28
   117  0077EA  22                 	db	34
   118  0077EB  41                 	db	65
   119  0077EC  00                 	db	0
   120  0077ED  00                 	db	0
   121  0077EE  41                 	db	65
   122  0077EF  22                 	db	34
   123  0077F0  1C                 	db	28
   124  0077F1  00                 	db	0
   125  0077F2  14                 	db	20
   126  0077F3  08                 	db	8
   127  0077F4  3E                 	db	62
   128  0077F5  08                 	db	8
   129  0077F6  14                 	db	20
   130  0077F7  08                 	db	8
   131  0077F8  08                 	db	8
   132  0077F9  3E                 	db	62
   133  0077FA  08                 	db	8
   134  0077FB  08                 	db	8
   135  0077FC  00                 	db	0
   136  0077FD  50                 	db	80
   137  0077FE  30                 	db	48
   138  0077FF  00                 	db	0
   139  007800  00                 	db	0
   140  007801  08                 	db	8
   141  007802  08                 	db	8
   142  007803  08                 	db	8
   143  007804  08                 	db	8
   144  007805  08                 	db	8
   145  007806  00                 	db	0
   146  007807  60                 	db	96
   147  007808  60                 	db	96
   148  007809  00                 	db	0
   149  00780A  00                 	db	0
   150  00780B  20                 	db	32
   151  00780C  10                 	db	16
   152  00780D  08                 	db	8
   153  00780E  04                 	db	4
   154  00780F  02                 	db	2
   155  007810  3E                 	db	62
   156  007811  51                 	db	81
   157  007812  49                 	db	73
   158  007813  45                 	db	69
   159  007814  3E                 	db	62
   160  007815  00                 	db	0
   161  007816  42                 	db	66
   162  007817  7F                 	db	127
   163  007818  40                 	db	64
   164  007819  00                 	db	0
   165  00781A  42                 	db	66
   166  00781B  61                 	db	97
   167  00781C  51                 	db	81
   168  00781D  49                 	db	73
   169  00781E  46                 	db	70
   170  00781F  21                 	db	33
   171  007820  41                 	db	65
   172  007821  45                 	db	69
   173  007822  4B                 	db	75
   174  007823  31                 	db	49
   175  007824  18                 	db	24
   176  007825  14                 	db	20
   177  007826  12                 	db	18
   178  007827  7F                 	db	127
   179  007828  10                 	db	16
   180  007829  27                 	db	39
   181  00782A  45                 	db	69
   182  00782B  45                 	db	69
   183  00782C  45                 	db	69
   184  00782D  39                 	db	57
   185  00782E  3C                 	db	60
   186  00782F  4A                 	db	74
   187  007830  49                 	db	73
   188  007831  49                 	db	73
   189  007832  30                 	db	48
   190  007833  01                 	db	1
   191  007834  71                 	db	113
   192  007835  09                 	db	9
   193  007836  05                 	db	5
   194  007837  03                 	db	3
   195  007838  36                 	db	54
   196  007839  49                 	db	73
   197  00783A  49                 	db	73
   198  00783B  49                 	db	73
   199  00783C  36                 	db	54
   200  00783D  06                 	db	6
   201  00783E  49                 	db	73
   202  00783F  49                 	db	73
   203  007840  29                 	db	41
   204  007841  1E                 	db	30
   205  007842  00                 	db	0
   206  007843  36                 	db	54
   207  007844  36                 	db	54
   208  007845  00                 	db	0
   209  007846  00                 	db	0
   210  007847  00                 	db	0
   211  007848  56                 	db	86
   212  007849  36                 	db	54
   213  00784A  00                 	db	0
   214  00784B  00                 	db	0
   215  00784C  08                 	db	8
   216  00784D  14                 	db	20
   217  00784E  22                 	db	34
   218  00784F  41                 	db	65
   219  007850  00                 	db	0
   220  007851  14                 	db	20
   221  007852  14                 	db	20
   222  007853  14                 	db	20
   223  007854  14                 	db	20
   224  007855  14                 	db	20
   225  007856  00                 	db	0
   226  007857  41                 	db	65
   227  007858  22                 	db	34
   228  007859  14                 	db	20
   229  00785A  08                 	db	8
   230  00785B  02                 	db	2
   231  00785C  01                 	db	1
   232  00785D  51                 	db	81
   233  00785E  09                 	db	9
   234  00785F  06                 	db	6
   235  007860  32                 	db	50
   236  007861  49                 	db	73
   237  007862  79                 	db	121
   238  007863  41                 	db	65
   239  007864  3E                 	db	62
   240  007865  7E                 	db	126
   241  007866  11                 	db	17
   242  007867  11                 	db	17
   243  007868  11                 	db	17
   244  007869  7E                 	db	126
   245  00786A  7F                 	db	127
   246  00786B  49                 	db	73
   247  00786C  49                 	db	73
   248  00786D  49                 	db	73
   249  00786E  36                 	db	54
   250  00786F  3E                 	db	62
   251  007870  41                 	db	65
   252  007871  41                 	db	65
   253  007872  41                 	db	65
   254  007873  22                 	db	34
   255  007874  7F                 	db	127
   256  007875  41                 	db	65
   257  007876  41                 	db	65
   258  007877  22                 	db	34
   259  007878  1C                 	db	28
   260  007879  7F                 	db	127
   261  00787A  49                 	db	73
   262  00787B  49                 	db	73
   263  00787C  49                 	db	73
   264  00787D  41                 	db	65
   265  00787E  7F                 	db	127
   266  00787F  09                 	db	9
   267  007880  09                 	db	9
   268  007881  09                 	db	9
   269  007882  01                 	db	1
   270  007883  3E                 	db	62
   271  007884  41                 	db	65
   272  007885  49                 	db	73
   273  007886  49                 	db	73
   274  007887  7A                 	db	122
   275  007888  7F                 	db	127
   276  007889  08                 	db	8
   277  00788A  08                 	db	8
   278  00788B  08                 	db	8
   279  00788C  7F                 	db	127
   280  00788D  00                 	db	0
   281  00788E  41                 	db	65
   282  00788F  7F                 	db	127
   283  007890  41                 	db	65
   284  007891  00                 	db	0
   285  007892  20                 	db	32
   286  007893  40                 	db	64
   287  007894  41                 	db	65
   288  007895  3F                 	db	63
   289  007896  01                 	db	1
   290  007897  7F                 	db	127
   291  007898  08                 	db	8
   292  007899  14                 	db	20
   293  00789A  22                 	db	34
   294  00789B  41                 	db	65
   295  00789C  7F                 	db	127
   296  00789D  40                 	db	64
   297  00789E  40                 	db	64
   298  00789F  40                 	db	64
   299  0078A0  40                 	db	64
   300  0078A1  7F                 	db	127
   301  0078A2  02                 	db	2
   302  0078A3  0C                 	db	12
   303  0078A4  02                 	db	2
   304  0078A5  7F                 	db	127
   305  0078A6  7F                 	db	127
   306  0078A7  04                 	db	4
   307  0078A8  08                 	db	8
   308  0078A9  10                 	db	16
   309  0078AA  7F                 	db	127
   310  0078AB  3E                 	db	62
   311  0078AC  41                 	db	65
   312  0078AD  41                 	db	65
   313  0078AE  41                 	db	65
   314  0078AF  3E                 	db	62
   315  0078B0  7F                 	db	127
   316  0078B1  09                 	db	9
   317  0078B2  09                 	db	9
   318  0078B3  09                 	db	9
   319  0078B4  06                 	db	6
   320  0078B5  3E                 	db	62
   321  0078B6  41                 	db	65
   322  0078B7  51                 	db	81
   323  0078B8  21                 	db	33
   324  0078B9  5E                 	db	94
   325  0078BA  7F                 	db	127
   326  0078BB  09                 	db	9
   327  0078BC  19                 	db	25
   328  0078BD  29                 	db	41
   329  0078BE  46                 	db	70
   330  0078BF  46                 	db	70
   331  0078C0  49                 	db	73
   332  0078C1  49                 	db	73
   333  0078C2  49                 	db	73
   334  0078C3  31                 	db	49
   335  0078C4  01                 	db	1
   336  0078C5  01                 	db	1
   337  0078C6  7F                 	db	127
   338  0078C7  01                 	db	1
   339  0078C8  01                 	db	1
   340  0078C9  3F                 	db	63
   341  0078CA  40                 	db	64
   342  0078CB  40                 	db	64
   343  0078CC  40                 	db	64
   344  0078CD  3F                 	db	63
   345  0078CE  1F                 	db	31
   346  0078CF  20                 	db	32
   347  0078D0  40                 	db	64
   348  0078D1  20                 	db	32
   349  0078D2  1F                 	db	31
   350  0078D3  3F                 	db	63
   351  0078D4  40                 	db	64
   352  0078D5  38                 	db	56
   353  0078D6  40                 	db	64
   354  0078D7  3F                 	db	63
   355  0078D8  63                 	db	99
   356  0078D9  14                 	db	20
   357  0078DA  08                 	db	8
   358  0078DB  14                 	db	20
   359  0078DC  63                 	db	99
   360  0078DD  07                 	db	7
   361  0078DE  08                 	db	8
   362  0078DF  70                 	db	112
   363  0078E0  08                 	db	8
   364  0078E1  07                 	db	7
   365  0078E2  61                 	db	97
   366  0078E3  51                 	db	81
   367  0078E4  49                 	db	73
   368  0078E5  45                 	db	69
   369  0078E6  43                 	db	67
   370  0078E7  00                 	db	0
   371  0078E8  7F                 	db	127
   372  0078E9  41                 	db	65
   373  0078EA  41                 	db	65
   374  0078EB  00                 	db	0
   375  0078EC  02                 	db	2
   376  0078ED  04                 	db	4
   377  0078EE  08                 	db	8
   378  0078EF  10                 	db	16
   379  0078F0  20                 	db	32
   380  0078F1  00                 	db	0
   381  0078F2  41                 	db	65
   382  0078F3  41                 	db	65
   383  0078F4  7F                 	db	127
   384  0078F5  00                 	db	0
   385  0078F6  04                 	db	4
   386  0078F7  02                 	db	2
   387  0078F8  01                 	db	1
   388  0078F9  02                 	db	2
   389  0078FA  04                 	db	4
   390  0078FB  40                 	db	64
   391  0078FC  40                 	db	64
   392  0078FD  40                 	db	64
   393  0078FE  40                 	db	64
   394  0078FF  40                 	db	64
   395  007900  00                 	db	0
   396  007901  01                 	db	1
   397  007902  02                 	db	2
   398  007903  04                 	db	4
   399  007904  00                 	db	0
   400  007905  20                 	db	32
   401  007906  54                 	db	84
   402  007907  54                 	db	84
   403  007908  54                 	db	84
   404  007909  78                 	db	120
   405  00790A  7F                 	db	127
   406  00790B  48                 	db	72
   407  00790C  44                 	db	68
   408  00790D  44                 	db	68
   409  00790E  38                 	db	56
   410  00790F  38                 	db	56
   411  007910  44                 	db	68
   412  007911  44                 	db	68
   413  007912  44                 	db	68
   414  007913  20                 	db	32
   415  007914  38                 	db	56
   416  007915  44                 	db	68
   417  007916  44                 	db	68
   418  007917  48                 	db	72
   419  007918  7F                 	db	127
   420  007919  38                 	db	56
   421  00791A  54                 	db	84
   422  00791B  54                 	db	84
   423  00791C  54                 	db	84
   424  00791D  18                 	db	24
   425  00791E  08                 	db	8
   426  00791F  7E                 	db	126
   427  007920  09                 	db	9
   428  007921  01                 	db	1
   429  007922  02                 	db	2
   430  007923  0C                 	db	12
   431  007924  52                 	db	82
   432  007925  52                 	db	82
   433  007926  52                 	db	82
   434  007927  3E                 	db	62
   435  007928  7F                 	db	127
   436  007929  08                 	db	8
   437  00792A  04                 	db	4
   438  00792B  04                 	db	4
   439  00792C  78                 	db	120
   440  00792D  00                 	db	0
   441  00792E  44                 	db	68
   442  00792F  7D                 	db	125
   443  007930  40                 	db	64
   444  007931  00                 	db	0
   445  007932  20                 	db	32
   446  007933  40                 	db	64
   447  007934  44                 	db	68
   448  007935  3D                 	db	61
   449  007936  00                 	db	0
   450  007937  7F                 	db	127
   451  007938  10                 	db	16
   452  007939  28                 	db	40
   453  00793A  44                 	db	68
   454  00793B  00                 	db	0
   455  00793C  00                 	db	0
   456  00793D  41                 	db	65
   457  00793E  7F                 	db	127
   458  00793F  40                 	db	64
   459  007940  00                 	db	0
   460  007941  7C                 	db	124
   461  007942  04                 	db	4
   462  007943  18                 	db	24
   463  007944  04                 	db	4
   464  007945  78                 	db	120
   465  007946  7C                 	db	124
   466  007947  08                 	db	8
   467  007948  04                 	db	4
   468  007949  04                 	db	4
   469  00794A  78                 	db	120
   470  00794B  38                 	db	56
   471  00794C  44                 	db	68
   472  00794D  44                 	db	68
   473  00794E  44                 	db	68
   474  00794F  38                 	db	56
   475  007950  7C                 	db	124
   476  007951  14                 	db	20
   477  007952  14                 	db	20
   478  007953  14                 	db	20
   479  007954  08                 	db	8
   480  007955  08                 	db	8
   481  007956  14                 	db	20
   482  007957  14                 	db	20
   483  007958  18                 	db	24
   484  007959  7C                 	db	124
   485  00795A  7C                 	db	124
   486  00795B  08                 	db	8
   487  00795C  04                 	db	4
   488  00795D  04                 	db	4
   489  00795E  08                 	db	8
   490  00795F  48                 	db	72
   491  007960  54                 	db	84
   492  007961  54                 	db	84
   493  007962  54                 	db	84
   494  007963  20                 	db	32
   495  007964  04                 	db	4
   496  007965  3F                 	db	63
   497  007966  44                 	db	68
   498  007967  40                 	db	64
   499  007968  20                 	db	32
   500  007969  3C                 	db	60
   501  00796A  40                 	db	64
   502  00796B  40                 	db	64
   503  00796C  20                 	db	32
   504  00796D  7C                 	db	124
   505  00796E  1C                 	db	28
   506  00796F  20                 	db	32
   507  007970  40                 	db	64
   508  007971  20                 	db	32
   509  007972  1C                 	db	28
   510  007973  3C                 	db	60
   511  007974  40                 	db	64
   512  007975  30                 	db	48
   513  007976  40                 	db	64
   514  007977  3C                 	db	60
   515  007978  44                 	db	68
   516  007979  28                 	db	40
   517  00797A  10                 	db	16
   518  00797B  28                 	db	40
   519  00797C  44                 	db	68
   520  00797D  0C                 	db	12
   521  00797E  50                 	db	80
   522  00797F  50                 	db	80
   523  007980  50                 	db	80
   524  007981  3C                 	db	60
   525  007982  44                 	db	68
   526  007983  64                 	db	100
   527  007984  54                 	db	84
   528  007985  4C                 	db	76
   529  007986  44                 	db	68
   530  007987  00                 	db	0
   531  007988  08                 	db	8
   532  007989  36                 	db	54
   533  00798A  41                 	db	65
   534  00798B  00                 	db	0
   535  00798C  00                 	db	0
   536  00798D  00                 	db	0
   537  00798E  7F                 	db	127
   538  00798F  00                 	db	0
   539  007990  00                 	db	0
   540  007991  00                 	db	0
   541  007992  41                 	db	65
   542  007993  36                 	db	54
   543  007994  08                 	db	8
   544  007995  00                 	db	0
   545  007996  10                 	db	16
   546  007997  08                 	db	8
   547  007998  08                 	db	8
   548  007999  10                 	db	16
   549  00799A  08                 	db	8
   550  00799B  78                 	db	120
   551  00799C  46                 	db	70
   552  00799D  41                 	db	65
   553  00799E  46                 	db	70
   554  00799F  78                 	db	120
   555                           
   556                           	psect	mediumconst
   557  007DC4                     __pmediumconst:
   558                           	callstack 0
   559  007DC4  00                 	db	0
   560  007DC5                     _imagem:
   561                           	callstack 0
   562  007DC5  00                 	db	0
   563  007DC6  00                 	db	0
   564  007DC7  00                 	db	0
   565  007DC8  00                 	db	0
   566  007DC9  00                 	db	0
   567  007DCA  00                 	db	0
   568  007DCB  00                 	db	0
   569  007DCC  00                 	db	0
   570  007DCD  00                 	db	0
   571  007DCE  00                 	db	0
   572  007DCF  00                 	db	0
   573  007DD0  00                 	db	0
   574  007DD1  00                 	db	0
   575  007DD2  00                 	db	0
   576  007DD3  00                 	db	0
   577  007DD4  00                 	db	0
   578  007DD5  00                 	db	0
   579  007DD6  00                 	db	0
   580  007DD7  00                 	db	0
   581  007DD8  00                 	db	0
   582  007DD9  00                 	db	0
   583  007DDA  00                 	db	0
   584  007DDB  00                 	db	0
   585  007DDC  00                 	db	0
   586  007DDD  00                 	db	0
   587  007DDE  00                 	db	0
   588  007DDF  00                 	db	0
   589  007DE0  00                 	db	0
   590  007DE1  00                 	db	0
   591  007DE2  00                 	db	0
   592  007DE3  00                 	db	0
   593  007DE4  00                 	db	0
   594  007DE5  00                 	db	0
   595  007DE6  00                 	db	0
   596  007DE7  00                 	db	0
   597  007DE8  00                 	db	0
   598  007DE9  00                 	db	0
   599  007DEA  00                 	db	0
   600  007DEB  00                 	db	0
   601  007DEC  00                 	db	0
   602  007DED  00                 	db	0
   603  007DEE  00                 	db	0
   604  007DEF  00                 	db	0
   605  007DF0  00                 	db	0
   606  007DF1  00                 	db	0
   607  007DF2  00                 	db	0
   608  007DF3  00                 	db	0
   609  007DF4  80                 	db	128
   610  007DF5  80                 	db	128
   611  007DF6  80                 	db	128
   612  007DF7  80                 	db	128
   613  007DF8  C0                 	db	192
   614  007DF9  C0                 	db	192
   615  007DFA  40                 	db	64
   616  007DFB  60                 	db	96
   617  007DFC  E0                 	db	224
   618  007DFD  60                 	db	96
   619  007DFE  F0                 	db	240
   620  007DFF  70                 	db	112
   621  007E00  30                 	db	48
   622  007E01  18                 	db	24
   623  007E02  00                 	db	0
   624  007E03  00                 	db	0
   625  007E04  00                 	db	0
   626  007E05  00                 	db	0
   627  007E06  00                 	db	0
   628  007E07  00                 	db	0
   629  007E08  00                 	db	0
   630  007E09  00                 	db	0
   631  007E0A  00                 	db	0
   632  007E0B  00                 	db	0
   633  007E0C  00                 	db	0
   634  007E0D  00                 	db	0
   635  007E0E  00                 	db	0
   636  007E0F  00                 	db	0
   637  007E10  00                 	db	0
   638  007E11  00                 	db	0
   639  007E12  00                 	db	0
   640  007E13  00                 	db	0
   641  007E14  00                 	db	0
   642  007E15  00                 	db	0
   643  007E16  00                 	db	0
   644  007E17  00                 	db	0
   645  007E18  00                 	db	0
   646  007E19  00                 	db	0
   647  007E1A  00                 	db	0
   648  007E1B  00                 	db	0
   649  007E1C  00                 	db	0
   650  007E1D  00                 	db	0
   651  007E1E  00                 	db	0
   652  007E1F  00                 	db	0
   653  007E20  00                 	db	0
   654  007E21  00                 	db	0
   655  007E22  00                 	db	0
   656  007E23  00                 	db	0
   657  007E24  00                 	db	0
   658  007E25  00                 	db	0
   659  007E26  80                 	db	128
   660  007E27  80                 	db	128
   661  007E28  C0                 	db	192
   662  007E29  60                 	db	96
   663  007E2A  E0                 	db	224
   664  007E2B  A0                 	db	160
   665  007E2C  B0                 	db	176
   666  007E2D  70                 	db	112
   667  007E2E  50                 	db	80
   668  007E2F  D8                 	db	216
   669  007E30  F8                 	db	248
   670  007E31  A8                 	db	168
   671  007E32  EC                 	db	236
   672  007E33  FC                 	db	252
   673  007E34  FC                 	db	252
   674  007E35  5E                 	db	94
   675  007E36  60                 	db	96
   676  007E37  60                 	db	96
   677  007E38  A0                 	db	160
   678  007E39  F0                 	db	240
   679  007E3A  F0                 	db	240
   680  007E3B  98                 	db	152
   681  007E3C  80                 	db	128
   682  007E3D  C0                 	db	192
   683  007E3E  C0                 	db	192
   684  007E3F  C0                 	db	192
   685  007E40  60                 	db	96
   686  007E41  60                 	db	96
   687  007E42  F0                 	db	240
   688  007E43  3E                 	db	62
   689  007E44  A6                 	db	166
   690  007E45  B3                 	db	179
   691  007E46  B7                 	db	183
   692  007E47  95                 	db	149
   693  007E48  FD                 	db	253
   694  007E49  7D                 	db	125
   695  007E4A  0F                 	db	15
   696  007E4B  C6                 	db	198
   697  007E4C  FE                 	db	254
   698  007E4D  3D                 	db	61
   699  007E4E  0D                 	db	13
   700  007E4F  0F                 	db	15
   701  007E50  07                 	db	7
   702  007E51  07                 	db	7
   703  007E52  07                 	db	7
   704  007E53  06                 	db	6
   705  007E54  00                 	db	0
   706  007E55  00                 	db	0
   707  007E56  00                 	db	0
   708  007E57  00                 	db	0
   709  007E58  00                 	db	0
   710  007E59  00                 	db	0
   711  007E5A  00                 	db	0
   712  007E5B  80                 	db	128
   713  007E5C  80                 	db	128
   714  007E5D  80                 	db	128
   715  007E5E  80                 	db	128
   716  007E5F  80                 	db	128
   717  007E60  80                 	db	128
   718  007E61  80                 	db	128
   719  007E62  00                 	db	0
   720  007E63  00                 	db	0
   721  007E64  00                 	db	0
   722  007E65  00                 	db	0
   723  007E66  00                 	db	0
   724  007E67  00                 	db	0
   725  007E68  00                 	db	0
   726  007E69  00                 	db	0
   727  007E6A  00                 	db	0
   728  007E6B  00                 	db	0
   729  007E6C  00                 	db	0
   730  007E6D  00                 	db	0
   731  007E6E  00                 	db	0
   732  007E6F  00                 	db	0
   733  007E70  00                 	db	0
   734  007E71  00                 	db	0
   735  007E72  00                 	db	0
   736  007E73  00                 	db	0
   737  007E74  00                 	db	0
   738  007E75  00                 	db	0
   739  007E76  00                 	db	0
   740  007E77  F0                 	db	240
   741  007E78  FC                 	db	252
   742  007E79  87                 	db	135
   743  007E7A  F9                 	db	249
   744  007E7B  B6                 	db	182
   745  007E7C  AC                 	db	172
   746  007E7D  AF                 	db	175
   747  007E7E  BE                 	db	190
   748  007E7F  36                 	db	54
   749  007E80  17                 	db	23
   750  007E81  17                 	db	23
   751  007E82  87                 	db	135
   752  007E83  FF                 	db	255
   753  007E84  F9                 	db	249
   754  007E85  3F                 	db	63
   755  007E86  86                 	db	134
   756  007E87  FA                 	db	250
   757  007E88  3F                 	db	63
   758  007E89  17                 	db	23
   759  007E8A  82                 	db	130
   760  007E8B  9B                 	db	155
   761  007E8C  1B                 	db	27
   762  007E8D  49                 	db	73
   763  007E8E  F1                 	db	241
   764  007E8F  1F                 	db	31
   765  007E90  01                 	db	1
   766  007E91  36                 	db	54
   767  007E92  B6                 	db	182
   768  007E93  92                 	db	146
   769  007E94  FE                 	db	254
   770  007E95  BF                 	db	191
   771  007E96  C3                 	db	195
   772  007E97  C8                 	db	200
   773  007E98  C9                 	db	201
   774  007E99  CD                 	db	205
   775  007E9A  67                 	db	103
   776  007E9B  7F                 	db	127
   777  007E9C  E3                 	db	227
   778  007E9D  B0                 	db	176
   779  007E9E  B0                 	db	176
   780  007E9F  FF                 	db	255
   781  007EA0  D3                 	db	211
   782  007EA1  D0                 	db	208
   783  007EA2  D8                 	db	216
   784  007EA3  F8                 	db	248
   785  007EA4  68                 	db	104
   786  007EA5  2C                 	db	44
   787  007EA6  FC                 	db	252
   788  007EA7  FC                 	db	252
   789  007EA8  FE                 	db	254
   790  007EA9  8E                 	db	142
   791  007EAA  EA                 	db	234
   792  007EAB  7B                 	db	123
   793  007EAC  3B                 	db	59
   794  007EAD  FF                 	db	255
   795  007EAE  FD                 	db	253
   796  007EAF  ED                 	db	237
   797  007EB0  EF                 	db	239
   798  007EB1  FE                 	db	254
   799  007EB2  BE                 	db	190
   800  007EB3  FE                 	db	254
   801  007EB4  7D                 	db	125
   802  007EB5  EF                 	db	239
   803  007EB6  FF                 	db	255
   804  007EB7  38                 	db	56
   805  007EB8  00                 	db	0
   806  007EB9  00                 	db	0
   807  007EBA  00                 	db	0
   808  007EBB  00                 	db	0
   809  007EBC  00                 	db	0
   810  007EBD  00                 	db	0
   811  007EBE  00                 	db	0
   812  007EBF  00                 	db	0
   813  007EC0  00                 	db	0
   814  007EC1  00                 	db	0
   815  007EC2  00                 	db	0
   816  007EC3  00                 	db	0
   817  007EC4  10                 	db	16
   818  007EC5  30                 	db	48
   819  007EC6  B0                 	db	176
   820  007EC7  F8                 	db	248
   821  007EC8  78                 	db	120
   822  007EC9  08                 	db	8
   823  007ECA  0C                 	db	12
   824  007ECB  0C                 	db	12
   825  007ECC  05                 	db	5
   826  007ECD  87                 	db	135
   827  007ECE  87                 	db	135
   828  007ECF  C3                 	db	195
   829  007ED0  C3                 	db	195
   830  007ED1  61                 	db	97
   831  007ED2  60                 	db	96
   832  007ED3  F0                 	db	240
   833  007ED4  B8                 	db	184
   834  007ED5  BE                 	db	190
   835  007ED6  BF                 	db	191
   836  007ED7  FF                 	db	255
   837  007ED8  D9                 	db	217
   838  007ED9  DC                 	db	220
   839  007EDA  FF                 	db	255
   840  007EDB  EF                 	db	239
   841  007EDC  AD                 	db	173
   842  007EDD  AC                 	db	172
   843  007EDE  FF                 	db	255
   844  007EDF  F7                 	db	247
   845  007EE0  D6                 	db	214
   846  007EE1  DF                 	db	223
   847  007EE2  FB                 	db	251
   848  007EE3  FB                 	db	251
   849  007EE4  6B                 	db	107
   850  007EE5  EF                 	db	239
   851  007EE6  BD                 	db	189
   852  007EE7  BD                 	db	189
   853  007EE8  B5                 	db	181
   854  007EE9  F7                 	db	247
   855  007EEA  FA                 	db	250
   856  007EEB  1F                 	db	31
   857  007EEC  DF                 	db	223
   858  007EED  F9                 	db	249
   859  007EEE  FA                 	db	250
   860  007EEF  1F                 	db	31
   861  007EF0  ED                 	db	237
   862  007EF1  FD                 	db	253
   863  007EF2  0F                 	db	15
   864  007EF3  E3                 	db	227
   865  007EF4  FF                 	db	255
   866  007EF5  2E                 	db	46
   867  007EF6  DF                 	db	223
   868  007EF7  6B                 	db	107
   869  007EF8  6B                 	db	107
   870  007EF9  7B                 	db	123
   871  007EFA  B7                 	db	183
   872  007EFB  FD                 	db	253
   873  007EFC  1D                 	db	29
   874  007EFD  2F                 	db	47
   875  007EFE  11                 	db	17
   876  007EFF  8B                 	db	139
   877  007F00  9F                 	db	159
   878  007F01  97                 	db	151
   879  007F02  17                 	db	23
   880  007F03  0B                 	db	11
   881  007F04  2D                 	db	45
   882  007F05  76                 	db	118
   883  007F06  F7                 	db	247
   884  007F07  9B                 	db	155
   885  007F08  1E                 	db	30
   886  007F09  0F                 	db	15
   887  007F0A  03                 	db	3
   888  007F0B  00                 	db	0
   889  007F0C  00                 	db	0
   890  007F0D  00                 	db	0
   891  007F0E  00                 	db	0
   892  007F0F  00                 	db	0
   893  007F10  00                 	db	0
   894  007F11  00                 	db	0
   895  007F12  00                 	db	0
   896  007F13  00                 	db	0
   897  007F14  00                 	db	0
   898  007F15  10                 	db	16
   899  007F16  18                 	db	24
   900  007F17  0C                 	db	12
   901  007F18  0E                 	db	14
   902  007F19  0F                 	db	15
   903  007F1A  05                 	db	5
   904  007F1B  06                 	db	6
   905  007F1C  06                 	db	6
   906  007F1D  02                 	db	2
   907  007F1E  37                 	db	55
   908  007F1F  1F                 	db	31
   909  007F20  1F                 	db	31
   910  007F21  1F                 	db	31
   911  007F22  1F                 	db	31
   912  007F23  0A                 	db	10
   913  007F24  0D                 	db	13
   914  007F25  8D                 	db	141
   915  007F26  CF                 	db	207
   916  007F27  FF                 	db	255
   917  007F28  BE                 	db	190
   918  007F29  DE                 	db	222
   919  007F2A  C7                 	db	199
   920  007F2B  07                 	db	7
   921  007F2C  09                 	db	9
   922  007F2D  C7                 	db	199
   923  007F2E  E6                 	db	230
   924  007F2F  6B                 	db	107
   925  007F30  E3                 	db	227
   926  007F31  E3                 	db	227
   927  007F32  3F                 	db	63
   928  007F33  07                 	db	7
   929  007F34  FA                 	db	250
   930  007F35  1F                 	db	31
   931  007F36  23                 	db	35
   932  007F37  7C                 	db	124
   933  007F38  6F                 	db	111
   934  007F39  26                 	db	38
   935  007F3A  06                 	db	6
   936  007F3B  E3                 	db	227
   937  007F3C  7B                 	db	123
   938  007F3D  0F                 	db	15
   939  007F3E  C0                 	db	192
   940  007F3F  F2                 	db	242
   941  007F40  71                 	db	113
   942  007F41  81                 	db	129
   943  007F42  C1                 	db	193
   944  007F43  7E                 	db	126
   945  007F44  07                 	db	7
   946  007F45  C0                 	db	192
   947  007F46  FE                 	db	254
   948  007F47  9F                 	db	159
   949  007F48  83                 	db	131
   950  007F49  88                 	db	136
   951  007F4A  8C                 	db	140
   952  007F4B  CC                 	db	204
   953  007F4C  CC                 	db	204
   954  007F4D  C6                 	db	198
   955  007F4E  F7                 	db	247
   956  007F4F  1F                 	db	31
   957  007F50  81                 	db	129
   958  007F51  80                 	db	128
   959  007F52  F0                 	db	240
   960  007F53  7F                 	db	127
   961  007F54  03                 	db	3
   962  007F55  07                 	db	7
   963  007F56  1C                 	db	28
   964  007F57  30                 	db	48
   965  007F58  60                 	db	96
   966  007F59  C0                 	db	192
   967  007F5A  80                 	db	128
   968  007F5B  81                 	db	129
   969  007F5C  03                 	db	3
   970  007F5D  03                 	db	3
   971  007F5E  02                 	db	2
   972  007F5F  02                 	db	2
   973  007F60  02                 	db	2
   974  007F61  02                 	db	2
   975  007F62  02                 	db	2
   976  007F63  C3                 	db	195
   977  007F64  FB                 	db	251
   978  007F65  3B                 	db	59
   979  007F66  0F                 	db	15
   980  007F67  03                 	db	3
   981  007F68  01                 	db	1
   982  007F69  00                 	db	0
   983  007F6A  00                 	db	0
   984  007F6B  00                 	db	0
   985  007F6C  00                 	db	0
   986  007F6D  00                 	db	0
   987  007F6E  00                 	db	0
   988  007F6F  00                 	db	0
   989  007F70  00                 	db	0
   990  007F71  00                 	db	0
   991  007F72  00                 	db	0
   992  007F73  00                 	db	0
   993  007F74  00                 	db	0
   994  007F75  00                 	db	0
   995  007F76  00                 	db	0
   996  007F77  00                 	db	0
   997  007F78  00                 	db	0
   998  007F79  01                 	db	1
   999  007F7A  01                 	db	1
  1000  007F7B  21                 	db	33
  1001  007F7C  1C                 	db	28
  1002  007F7D  1F                 	db	31
  1003  007F7E  0C                 	db	12
  1004  007F7F  0C                 	db	12
  1005  007F80  0C                 	db	12
  1006  007F81  1F                 	db	31
  1007  007F82  01                 	db	1
  1008  007F83  08                 	db	8
  1009  007F84  0F                 	db	15
  1010  007F85  07                 	db	7
  1011  007F86  06                 	db	6
  1012  007F87  07                 	db	7
  1013  007F88  03                 	db	3
  1014  007F89  06                 	db	6
  1015  007F8A  06                 	db	6
  1016  007F8B  06                 	db	6
  1017  007F8C  02                 	db	2
  1018  007F8D  02                 	db	2
  1019  007F8E  07                 	db	7
  1020  007F8F  07                 	db	7
  1021  007F90  06                 	db	6
  1022  007F91  06                 	db	6
  1023  007F92  03                 	db	3
  1024  007F93  01                 	db	1
  1025  007F94  01                 	db	1
  1026  007F95  0F                 	db	15
  1027  007F96  0F                 	db	15
  1028  007F97  06                 	db	6
  1029  007F98  03                 	db	3
  1030  007F99  03                 	db	3
  1031  007F9A  01                 	db	1
  1032  007F9B  01                 	db	1
  1033  007F9C  00                 	db	0
  1034  007F9D  00                 	db	0
  1035  007F9E  00                 	db	0
  1036  007F9F  00                 	db	0
  1037  007FA0  00                 	db	0
  1038  007FA1  07                 	db	7
  1039  007FA2  03                 	db	3
  1040  007FA3  03                 	db	3
  1041  007FA4  01                 	db	1
  1042  007FA5  01                 	db	1
  1043  007FA6  01                 	db	1
  1044  007FA7  00                 	db	0
  1045  007FA8  00                 	db	0
  1046  007FA9  00                 	db	0
  1047  007FAA  00                 	db	0
  1048  007FAB  00                 	db	0
  1049  007FAC  00                 	db	0
  1050  007FAD  00                 	db	0
  1051  007FAE  01                 	db	1
  1052  007FAF  01                 	db	1
  1053  007FB0  03                 	db	3
  1054  007FB1  03                 	db	3
  1055  007FB2  03                 	db	3
  1056  007FB3  02                 	db	2
  1057  007FB4  06                 	db	6
  1058  007FB5  07                 	db	7
  1059  007FB6  07                 	db	7
  1060  007FB7  07                 	db	7
  1061  007FB8  00                 	db	0
  1062  007FB9  00                 	db	0
  1063  007FBA  00                 	db	0
  1064  007FBB  00                 	db	0
  1065  007FBC  00                 	db	0
  1066  007FBD                     __end_of_imagem:
  1067                           	callstack 0
  1068  0000                     _PIR1bits	set	3998
  1069  0000                     _SSPBUF	set	4041
  1070  0000                     _TRISCbits	set	3988
  1071  0000                     _TRISAbits	set	3986
  1072  0000                     _TRISBbits	set	3987
  1073  0000                     _SSPCON1bits	set	4038
  1074  0000                     _SSPSTATbits	set	4039
  1075  0000                     _SSPSTAT	set	4039
  1076  0000                     _SSPCON1	set	4038
  1077  0000                     _TRISEbits	set	3990
  1078  0000                     _PORTEbits	set	3972
  1079  0000                     _PORTE	set	3972
  1080  0000                     _PORTD	set	3971
  1081  0000                     _PORTC	set	3970
  1082  0000                     _PORTB	set	3969
  1083  0000                     _PORTA	set	3968
  1084  0000                     _ADCON1	set	4033
  1085  0000                     _TRISE	set	3990
  1086  0000                     _TRISD	set	3989
  1087  0000                     _TRISC	set	3988
  1088  0000                     _TRISB	set	3987
  1089  0000                     _TRISA	set	3986
  1090  0000                     _PORTBbits	set	3969
  1091  0000                     _TRISDbits	set	3989
  1092  0000                     _PORTDbits	set	3971
  1093  007FBD                     STR_2:
  1094  007FBD  28                 	db	40
  1095  007FBE  28                 	db	40
  1096  007FBF  28                 	db	40
  1097  007FC0  54                 	db	84	;'T'
  1098  007FC1  45                 	db	69	;'E'
  1099  007FC2  53                 	db	83	;'S'
  1100  007FC3  54                 	db	84	;'T'
  1101  007FC4  45                 	db	69	;'E'
  1102  007FC5  29                 	db	41
  1103  007FC6  29                 	db	41
  1104  007FC7  29                 	db	41
  1105  007FC8  00                 	db	0
  1106  007FC9                     STR_9:
  1107  007FC9  4F                 	db	79	;'O'
  1108  007FCA  70                 	db	112	;'p'
  1109  007FCB  63                 	db	99	;'c'
  1110  007FCC  61                 	db	97	;'a'
  1111  007FCD  6F                 	db	111	;'o'
  1112  007FCE  20                 	db	32
  1113  007FCF  31                 	db	49	;'1'
  1114  007FD0  3A                 	db	58	;':'
  1115  007FD1  00                 	db	0
  1116  007FD2                     STR_11:
  1117  007FD2  4F                 	db	79	;'O'
  1118  007FD3  70                 	db	112	;'p'
  1119  007FD4  63                 	db	99	;'c'
  1120  007FD5  61                 	db	97	;'a'
  1121  007FD6  6F                 	db	111	;'o'
  1122  007FD7  20                 	db	32
  1123  007FD8  32                 	db	50	;'2'
  1124  007FD9  3A                 	db	58	;':'
  1125  007FDA  00                 	db	0
  1126  007FDB                     STR_13:
  1127  007FDB  4F                 	db	79	;'O'
  1128  007FDC  70                 	db	112	;'p'
  1129  007FDD  63                 	db	99	;'c'
  1130  007FDE  61                 	db	97	;'a'
  1131  007FDF  6F                 	db	111	;'o'
  1132  007FE0  20                 	db	32
  1133  007FE1  33                 	db	51	;'3'
  1134  007FE2  3A                 	db	58	;':'
  1135  007FE3  00                 	db	0
  1136  007FE4                     STR_15:
  1137  007FE4  4F                 	db	79	;'O'
  1138  007FE5  70                 	db	112	;'p'
  1139  007FE6  63                 	db	99	;'c'
  1140  007FE7  61                 	db	97	;'a'
  1141  007FE8  6F                 	db	111	;'o'
  1142  007FE9  20                 	db	32
  1143  007FEA  34                 	db	52	;'4'
  1144  007FEB  3A                 	db	58	;':'
  1145  007FEC  00                 	db	0
  1146  007FED                     STR_5:
  1147  007FED  54                 	db	84	;'T'
  1148  007FEE  65                 	db	101	;'e'
  1149  007FEF  73                 	db	115	;'s'
  1150  007FF0  74                 	db	116	;'t'
  1151  007FF1  65                 	db	101	;'e'
  1152  007FF2  00                 	db	0
  1153  007FF3                     STR_1:
  1154  007FF3  74                 	db	116	;'t'
  1155  007FF4  65                 	db	101	;'e'
  1156  007FF5  73                 	db	115	;'s'
  1157  007FF6  74                 	db	116	;'t'
  1158  007FF7  65                 	db	101	;'e'
  1159  007FF8  00                 	db	0
  1160  007FF9                     STR_8:
  1161  007FF9  4D                 	db	77	;'M'
  1162  007FFA  45                 	db	69	;'E'
  1163  007FFB  4E                 	db	78	;'N'
  1164  007FFC  55                 	db	85	;'U'
  1165  007FFD  00                 	db	0
  1166  007FFE  00                 	db	0	; dummy byte at the end
  1167  0000                     
  1168                           ; #config settings
  1169                           
  1170                           	psect	cinit
  1171  0072D2                     __pcinit:
  1172                           	callstack 0
  1173  0072D2                     start_initialization:
  1174                           	callstack 0
  1175  0072D2                     __initialization:
  1176                           	callstack 0
  1177                           
  1178                           ; Initialize objects allocated to BIGRAM (480 bytes)
  1179                           ; load TBLPTR registers with __pidataBIGRAM
  1180  0072D2  0EC0               	movlw	low __pidataBIGRAM
  1181  0072D4  6EF6               	movwf	tblptrl,c
  1182  0072D6  0E77               	movlw	high __pidataBIGRAM
  1183  0072D8  6EF7               	movwf	tblptrh,c
  1184  0072DA  0E00               	movlw	low (__pidataBIGRAM shr (0+16))
  1185  0072DC  6EF8               	movwf	tblptru,c
  1186  0072DE  EE06  F020         	lfsr	0,__pdataBIGRAM
  1187  0072E2  EE11 F0E0          	lfsr	1,480
  1188  0072E6                     copy_data0:
  1189  0072E6  0009               	tblrd		*+
  1190  0072E8  CFF5 FFEE          	movff	tablat,postinc0
  1191  0072EC  50E5               	movf	postdec1,w,c
  1192  0072EE  50E1               	movf	fsr1l,w,c
  1193  0072F0  E1FA               	bnz	copy_data0
  1194  0072F2  50E2               	movf	fsr1h,w,c
  1195  0072F4  E1F8               	bnz	copy_data0
  1196                           
  1197                           ; Clear objects allocated to COMRAM (1 bytes)
  1198  0072F6  6A0F               	clrf	__pbssCOMRAM& (0+255),c
  1199  0072F8                     end_of_initialization:
  1200                           	callstack 0
  1201  0072F8                     __end_of__initialization:
  1202                           	callstack 0
  1203  0072F8  0E00               	movlw	low (__Lmediumconst shr (0+16))
  1204  0072FA  6EF8               	movwf	tblptru,c
  1205  0072FC  0100               	movlb	0
  1206  0072FE  EFD0  F03C         	goto	_main	;jump to C main() function
  1207                           
  1208                           	psect	bssCOMRAM
  1209  00000F                     __pbssCOMRAM:
  1210                           	callstack 0
  1211  00000F                     _opcao:
  1212                           	callstack 0
  1213  00000F                     	ds	1
  1214                           
  1215                           	psect	dataBIGRAM
  1216  000620                     __pdataBIGRAM:
  1217                           	callstack 0
  1218  000620                     _tabela_ascii:
  1219                           	callstack 0
  1220  000620                     	ds	480
  1221                           
  1222                           	psect	cstackCOMRAM
  1223  000001                     __pcstackCOMRAM:
  1224                           	callstack 0
  1225  000001                     Inicializa_SPI@modo_clock:
  1226                           	callstack 0
  1227  000001                     Escrita_SPI@dado:
  1228                           	callstack 0
  1229                           
  1230                           ; 1 bytes @ 0x0
  1231  000001                     	ds	1
  1232  000002                     Envia_Instrucao@comando:
  1233                           	callstack 0
  1234  000002                     Envia_Dado@byte:
  1235                           	callstack 0
  1236  000002                     Inicializa_SPI@f_amostra:
  1237                           	callstack 0
  1238                           
  1239                           ; 1 bytes @ 0x1
  1240  000002                     	ds	1
  1241  000003                     ??_Inicializa_SPI:
  1242  000003                     ??_Inicializa_5110:
  1243  000003                     ??_escreve_caractere:
  1244  000003                     coordenada_x@x:
  1245                           	callstack 0
  1246  000003                     coordenada_y@y:
  1247                           	callstack 0
  1248  000003                     limpa_display@y:
  1249                           	callstack 0
  1250  000003                     escreve_string_cor@string:
  1251                           	callstack 0
  1252                           
  1253                           ; 2 bytes @ 0x2
  1254  000003                     	ds	1
  1255  000004                     testa_display@y:
  1256                           	callstack 0
  1257  000004                     limpa_display@x:
  1258                           	callstack 0
  1259  000004                     desenha_linha_horizontal@posicao_y:
  1260                           	callstack 0
  1261  000004                     desenha_linha_vertical@posicao_y:
  1262                           	callstack 0
  1263  000004                     imprime_imagem@imagem:
  1264                           	callstack 0
  1265                           
  1266                           ; 2 bytes @ 0x3
  1267  000004                     	ds	1
  1268  000005                     testa_display@x:
  1269                           	callstack 0
  1270  000005                     escreve_string_cor@cor:
  1271                           	callstack 0
  1272  000005                     desenha_linha_horizontal@posicao_x:
  1273                           	callstack 0
  1274  000005                     desenha_linha_vertical@posicao_x:
  1275                           	callstack 0
  1276  000005                     Inicializa_SPI@modo:
  1277                           	callstack 0
  1278                           
  1279                           ; 1 bytes @ 0x4
  1280  000005                     	ds	1
  1281  000006                     ??_escreve_string_cor:
  1282  000006                     ??_imprime_imagem:
  1283  000006                     desenha_linha_horizontal@linha:
  1284                           	callstack 0
  1285  000006                     desenha_linha_vertical@linha:
  1286                           	callstack 0
  1287                           
  1288                           ; 1 bytes @ 0x5
  1289  000006                     	ds	1
  1290  000007                     escreve_caractere@caractere:
  1291                           	callstack 0
  1292                           
  1293                           ; 1 bytes @ 0x6
  1294  000007                     	ds	1
  1295  000008                     escreve_caractere@i:
  1296                           	callstack 0
  1297  000008                     imprime_imagem@x:
  1298                           	callstack 0
  1299                           
  1300                           ; 2 bytes @ 0x7
  1301  000008                     	ds	1
  1302  000009                     testa_caracteres@c:
  1303                           	callstack 0
  1304  000009                     escreve_string@string:
  1305                           	callstack 0
  1306                           
  1307                           ; 2 bytes @ 0x8
  1308  000009                     	ds	1
  1309  00000A                     escreve_string_cor@caractere:
  1310                           	callstack 0
  1311                           
  1312                           ; 1 bytes @ 0x9
  1313  00000A                     	ds	1
  1314  00000B                     escreve_string_cor@i:
  1315                           	callstack 0
  1316                           
  1317                           ; 2 bytes @ 0xA
  1318  00000B                     	ds	2
  1319  00000D                     ??_main:
  1320                           
  1321                           ; 1 bytes @ 0xC
  1322  00000D                     	ds	2
  1323                           
  1324 ;;
  1325 ;;Main: autosize = 0, tempsize = 2, incstack = 0, save=0
  1326 ;;
  1327 ;; *************** function _main *****************
  1328 ;; Defined at:
  1329 ;;		line 63 in file "teste_nokia_5110.c"
  1330 ;; Parameters:    Size  Location     Type
  1331 ;;		None
  1332 ;; Auto vars:     Size  Location     Type
  1333 ;;		None
  1334 ;; Return value:  Size  Location     Type
  1335 ;;                  1    wreg      void 
  1336 ;; Registers used:
  1337 ;;		wreg, fsr2l, fsr2h, status,2, status,0, tblptrl, tblptrh, tblptru, prodl, prodh, cstack
  1338 ;; Tracked objects:
  1339 ;;		On entry : 0/0
  1340 ;;		On exit  : 0/0
  1341 ;;		Unchanged: 0/0
  1342 ;; Data sizes:     COMRAM   BANK0   BANK1   BANK2   BANK3   BANK4   BANK5   BANK6   BANK7
  1343 ;;      Params:         0       0       0       0       0       0       0       0       0
  1344 ;;      Locals:         0       0       0       0       0       0       0       0       0
  1345 ;;      Temps:          2       0       0       0       0       0       0       0       0
  1346 ;;      Totals:         2       0       0       0       0       0       0       0       0
  1347 ;;Total ram usage:        2 bytes
  1348 ;; Hardware stack levels required when called: 5
  1349 ;; This function calls:
  1350 ;;		_Envia_Instrucao
  1351 ;;		_Inic_Regs
  1352 ;;		_Inicializa_5110
  1353 ;;		_Inicializa_SPI
  1354 ;;		_coordenada_x
  1355 ;;		_coordenada_y
  1356 ;;		_desenha_linha_horizontal
  1357 ;;		_desenha_linha_vertical
  1358 ;;		_escreve_caractere
  1359 ;;		_escreve_menu
  1360 ;;		_escreve_string
  1361 ;;		_escreve_string_cor
  1362 ;;		_imprime_imagem
  1363 ;;		_limpa_display
  1364 ;;		_testa_caracteres
  1365 ;;		_testa_display
  1366 ;; This function is called by:
  1367 ;;		Startup code after reset
  1368 ;; This function uses a non-reentrant model
  1369 ;;
  1370                           
  1371                           	psect	text0
  1372  0079A0                     __ptext0:
  1373                           	callstack 0
  1374  0079A0                     _main:
  1375                           	callstack 26
  1376  0079A0                     
  1377                           ;teste_nokia_5110.c: 65:     Inic_Regs();
  1378  0079A0  EC3A  F039         	call	_Inic_Regs	;wreg free
  1379  0079A4                     
  1380                           ;teste_nokia_5110.c: 66:     Inicializa_SPI(0b00000010, 0x01, 0b10000000);
  1381  0079A4  0E01               	movlw	1
  1382  0079A6  6E01               	movwf	Inicializa_SPI@modo_clock^0,c
  1383  0079A8  0E80               	movlw	128
  1384  0079AA  6E02               	movwf	Inicializa_SPI@f_amostra^0,c
  1385  0079AC  0E02               	movlw	2
  1386  0079AE  EC98  F03A         	call	_Inicializa_SPI
  1387  0079B2                     
  1388                           ;teste_nokia_5110.c: 71:     Inicializa_5110();
  1389  0079B2  ECF4  F039         	call	_Inicializa_5110	;wreg free
  1390                           
  1391                           ;teste_nokia_5110.c: 73:     limpa_display();
  1392  0079B6  EC81  F039         	call	_limpa_display	;wreg free
  1393  0079BA                     
  1394                           ;teste_nokia_5110.c: 74:     PORTDbits.RD3 = 1;
  1395  0079BA  8683               	bsf	131,3,c	;volatile
  1396  0079BC                     
  1397                           ;teste_nokia_5110.c: 75:     _delay((unsigned long)((1000)*(20000000/4000.0)));
  1398  0079BC  0E1A               	movlw	26
  1399  0079BE  6E0E               	movwf	(??_main+1)^0,c
  1400  0079C0  0E5E               	movlw	94
  1401  0079C2  6E0D               	movwf	??_main^0,c
  1402  0079C4  0E6E               	movlw	110
  1403  0079C6                     u527:
  1404  0079C6  2EE8               	decfsz	wreg,f,c
  1405  0079C8  D7FE               	bra	u527
  1406  0079CA  2E0D               	decfsz	??_main^0,f,c
  1407  0079CC  D7FC               	bra	u527
  1408  0079CE  2E0E               	decfsz	(??_main+1)^0,f,c
  1409  0079D0  D7FA               	bra	u527
  1410  0079D2  D000               	nop2	
  1411  0079D4                     
  1412                           ;teste_nokia_5110.c: 76:     PORTDbits.RD3 = 0;
  1413  0079D4  9683               	bcf	131,3,c	;volatile
  1414  0079D6                     
  1415                           ;teste_nokia_5110.c: 77:     _delay((unsigned long)((1000)*(20000000/4000.0)));
  1416  0079D6  0E1A               	movlw	26
  1417  0079D8  6E0E               	movwf	(??_main+1)^0,c
  1418  0079DA  0E5E               	movlw	94
  1419  0079DC  6E0D               	movwf	??_main^0,c
  1420  0079DE  0E6E               	movlw	110
  1421  0079E0                     u537:
  1422  0079E0  2EE8               	decfsz	wreg,f,c
  1423  0079E2  D7FE               	bra	u537
  1424  0079E4  2E0D               	decfsz	??_main^0,f,c
  1425  0079E6  D7FC               	bra	u537
  1426  0079E8  2E0E               	decfsz	(??_main+1)^0,f,c
  1427  0079EA  D7FA               	bra	u537
  1428  0079EC  D000               	nop2	
  1429  0079EE                     
  1430                           ;teste_nokia_5110.c: 78:     PORTDbits.RD3 = 1;
  1431  0079EE  8683               	bsf	131,3,c	;volatile
  1432  0079F0                     
  1433                           ;teste_nokia_5110.c: 79:     _delay((unsigned long)((1000)*(20000000/4000.0)));
  1434  0079F0  0E1A               	movlw	26
  1435  0079F2  6E0E               	movwf	(??_main+1)^0,c
  1436  0079F4  0E5E               	movlw	94
  1437  0079F6  6E0D               	movwf	??_main^0,c
  1438  0079F8  0E6E               	movlw	110
  1439  0079FA                     u547:
  1440  0079FA  2EE8               	decfsz	wreg,f,c
  1441  0079FC  D7FE               	bra	u547
  1442  0079FE  2E0D               	decfsz	??_main^0,f,c
  1443  007A00  D7FC               	bra	u547
  1444  007A02  2E0E               	decfsz	(??_main+1)^0,f,c
  1445  007A04  D7FA               	bra	u547
  1446  007A06  D000               	nop2	
  1447  007A08                     
  1448                           ;teste_nokia_5110.c: 82:     coordenada_x(0x00);
  1449  007A08  0E00               	movlw	0
  1450  007A0A  EC1E  F039         	call	_coordenada_x
  1451  007A0E                     
  1452                           ;teste_nokia_5110.c: 83:     coordenada_y(0x00);
  1453  007A0E  0E00               	movlw	0
  1454  007A10  EC2C  F039         	call	_coordenada_y
  1455  007A14                     
  1456                           ;teste_nokia_5110.c: 85:     testa_display();
  1457  007A14  ECD4  F039         	call	_testa_display	;wreg free
  1458                           
  1459                           ;teste_nokia_5110.c: 86:     _delay((unsigned long)((1000)*(20000000/4000.0)));
  1460  007A18  0E1A               	movlw	26
  1461  007A1A  6E0E               	movwf	(??_main+1)^0,c
  1462  007A1C  0E5E               	movlw	94
  1463  007A1E  6E0D               	movwf	??_main^0,c
  1464  007A20  0E6E               	movlw	110
  1465  007A22                     u557:
  1466  007A22  2EE8               	decfsz	wreg,f,c
  1467  007A24  D7FE               	bra	u557
  1468  007A26  2E0D               	decfsz	??_main^0,f,c
  1469  007A28  D7FC               	bra	u557
  1470  007A2A  2E0E               	decfsz	(??_main+1)^0,f,c
  1471  007A2C  D7FA               	bra	u557
  1472  007A2E  D000               	nop2	
  1473  007A30                     
  1474                           ;teste_nokia_5110.c: 87:     limpa_display();
  1475  007A30  EC81  F039         	call	_limpa_display	;wreg free
  1476  007A34                     
  1477                           ;teste_nokia_5110.c: 88:     _delay((unsigned long)((1000)*(20000000/4000.0)));
  1478  007A34  0E1A               	movlw	26
  1479  007A36  6E0E               	movwf	(??_main+1)^0,c
  1480  007A38  0E5E               	movlw	94
  1481  007A3A  6E0D               	movwf	??_main^0,c
  1482  007A3C  0E6E               	movlw	110
  1483  007A3E                     u567:
  1484  007A3E  2EE8               	decfsz	wreg,f,c
  1485  007A40  D7FE               	bra	u567
  1486  007A42  2E0D               	decfsz	??_main^0,f,c
  1487  007A44  D7FC               	bra	u567
  1488  007A46  2E0E               	decfsz	(??_main+1)^0,f,c
  1489  007A48  D7FA               	bra	u567
  1490  007A4A  D000               	nop2	
  1491  007A4C                     
  1492                           ;teste_nokia_5110.c: 89:     testa_caracteres();
  1493  007A4C  EC6D  F03A         	call	_testa_caracteres	;wreg free
  1494  007A50                     
  1495                           ;teste_nokia_5110.c: 90:     _delay((unsigned long)((1000)*(20000000/4000.0)));
  1496  007A50  0E1A               	movlw	26
  1497  007A52  6E0E               	movwf	(??_main+1)^0,c
  1498  007A54  0E5E               	movlw	94
  1499  007A56  6E0D               	movwf	??_main^0,c
  1500  007A58  0E6E               	movlw	110
  1501  007A5A                     u577:
  1502  007A5A  2EE8               	decfsz	wreg,f,c
  1503  007A5C  D7FE               	bra	u577
  1504  007A5E  2E0D               	decfsz	??_main^0,f,c
  1505  007A60  D7FC               	bra	u577
  1506  007A62  2E0E               	decfsz	(??_main+1)^0,f,c
  1507  007A64  D7FA               	bra	u577
  1508  007A66  D000               	nop2	
  1509  007A68                     
  1510                           ;teste_nokia_5110.c: 91:     (Envia_Instrucao(0x0D));
  1511  007A68  0E0D               	movlw	13
  1512  007A6A  EC00  F039         	call	_Envia_Instrucao
  1513  007A6E                     
  1514                           ;teste_nokia_5110.c: 92:     _delay((unsigned long)((1000)*(20000000/4000.0)));
  1515  007A6E  0E1A               	movlw	26
  1516  007A70  6E0E               	movwf	(??_main+1)^0,c
  1517  007A72  0E5E               	movlw	94
  1518  007A74  6E0D               	movwf	??_main^0,c
  1519  007A76  0E6E               	movlw	110
  1520  007A78                     u587:
  1521  007A78  2EE8               	decfsz	wreg,f,c
  1522  007A7A  D7FE               	bra	u587
  1523  007A7C  2E0D               	decfsz	??_main^0,f,c
  1524  007A7E  D7FC               	bra	u587
  1525  007A80  2E0E               	decfsz	(??_main+1)^0,f,c
  1526  007A82  D7FA               	bra	u587
  1527  007A84  D000               	nop2	
  1528  007A86                     
  1529                           ;teste_nokia_5110.c: 93:     (Envia_Instrucao(0x0C));
  1530  007A86  0E0C               	movlw	12
  1531  007A88  EC00  F039         	call	_Envia_Instrucao
  1532  007A8C                     
  1533                           ;teste_nokia_5110.c: 94:     _delay((unsigned long)((1000)*(20000000/4000.0)));
  1534  007A8C  0E1A               	movlw	26
  1535  007A8E  6E0E               	movwf	(??_main+1)^0,c
  1536  007A90  0E5E               	movlw	94
  1537  007A92  6E0D               	movwf	??_main^0,c
  1538  007A94  0E6E               	movlw	110
  1539  007A96                     u597:
  1540  007A96  2EE8               	decfsz	wreg,f,c
  1541  007A98  D7FE               	bra	u597
  1542  007A9A  2E0D               	decfsz	??_main^0,f,c
  1543  007A9C  D7FC               	bra	u597
  1544  007A9E  2E0E               	decfsz	(??_main+1)^0,f,c
  1545  007AA0  D7FA               	bra	u597
  1546  007AA2  D000               	nop2	
  1547  007AA4                     
  1548                           ;teste_nokia_5110.c: 96:     limpa_display();
  1549  007AA4  EC81  F039         	call	_limpa_display	;wreg free
  1550  007AA8                     
  1551                           ;teste_nokia_5110.c: 97:     _delay((unsigned long)((10)*(20000000/4000.0)));
  1552  007AA8  0E41               	movlw	65
  1553  007AAA  6E0D               	movwf	??_main^0,c
  1554  007AAC  0EEE               	movlw	238
  1555  007AAE                     u607:
  1556  007AAE  2EE8               	decfsz	wreg,f,c
  1557  007AB0  D7FE               	bra	u607
  1558  007AB2  2E0D               	decfsz	??_main^0,f,c
  1559  007AB4  D7FC               	bra	u607
  1560  007AB6  D000               	nop2	
  1561  007AB8                     
  1562                           ;teste_nokia_5110.c: 98:     ((coordenada_x(0x00), coordenada_y(0x00)));
  1563  007AB8  0E00               	movlw	0
  1564  007ABA  EC1E  F039         	call	_coordenada_x
  1565  007ABE  0E00               	movlw	0
  1566  007AC0  EC2C  F039         	call	_coordenada_y
  1567  007AC4                     
  1568                           ;teste_nokia_5110.c: 99:     escreve_string("teste");
  1569  007AC4  0EF3               	movlw	low STR_1
  1570  007AC6  6E09               	movwf	escreve_string@string^0,c
  1571  007AC8  0E7F               	movlw	high STR_1
  1572  007ACA  6E0A               	movwf	(escreve_string@string+1)^0,c
  1573  007ACC  EC9B  F039         	call	_escreve_string	;wreg free
  1574  007AD0                     
  1575                           ;teste_nokia_5110.c: 100:     (coordenada_x(0x00), coordenada_y(0x01));
  1576  007AD0  0E00               	movlw	0
  1577  007AD2  EC1E  F039         	call	_coordenada_x
  1578  007AD6  0E01               	movlw	1
  1579  007AD8  EC2C  F039         	call	_coordenada_y
  1580  007ADC                     
  1581                           ;teste_nokia_5110.c: 101:     escreve_string("(((TESTE)))");
  1582  007ADC  0EBD               	movlw	low STR_2
  1583  007ADE  6E09               	movwf	escreve_string@string^0,c
  1584  007AE0  0E7F               	movlw	high STR_2
  1585  007AE2  6E0A               	movwf	(escreve_string@string+1)^0,c
  1586  007AE4  EC9B  F039         	call	_escreve_string	;wreg free
  1587  007AE8                     
  1588                           ;teste_nokia_5110.c: 102:     _delay((unsigned long)((1000)*(20000000/4000.0)));
  1589  007AE8  0E1A               	movlw	26
  1590  007AEA  6E0E               	movwf	(??_main+1)^0,c
  1591  007AEC  0E5E               	movlw	94
  1592  007AEE  6E0D               	movwf	??_main^0,c
  1593  007AF0  0E6E               	movlw	110
  1594  007AF2                     u617:
  1595  007AF2  2EE8               	decfsz	wreg,f,c
  1596  007AF4  D7FE               	bra	u617
  1597  007AF6  2E0D               	decfsz	??_main^0,f,c
  1598  007AF8  D7FC               	bra	u617
  1599  007AFA  2E0E               	decfsz	(??_main+1)^0,f,c
  1600  007AFC  D7FA               	bra	u617
  1601  007AFE  D000               	nop2	
  1602  007B00                     
  1603                           ;teste_nokia_5110.c: 104:     limpa_display();
  1604  007B00  EC81  F039         	call	_limpa_display	;wreg free
  1605  007B04                     
  1606                           ;teste_nokia_5110.c: 105:     _delay((unsigned long)((10)*(20000000/4000.0)));
  1607  007B04  0E41               	movlw	65
  1608  007B06  6E0D               	movwf	??_main^0,c
  1609  007B08  0EEE               	movlw	238
  1610  007B0A                     u627:
  1611  007B0A  2EE8               	decfsz	wreg,f,c
  1612  007B0C  D7FE               	bra	u627
  1613  007B0E  2E0D               	decfsz	??_main^0,f,c
  1614  007B10  D7FC               	bra	u627
  1615  007B12  D000               	nop2	
  1616  007B14                     
  1617                           ;teste_nokia_5110.c: 106:     ((coordenada_x(0x00), coordenada_y(0x00)));
  1618  007B14  0E00               	movlw	0
  1619  007B16  EC1E  F039         	call	_coordenada_x
  1620  007B1A  0E00               	movlw	0
  1621  007B1C  EC2C  F039         	call	_coordenada_y
  1622  007B20                     
  1623                           ;teste_nokia_5110.c: 107:     escreve_string_cor("teste", 0b00);
  1624  007B20  0EF3               	movlw	low STR_1
  1625  007B22  6E03               	movwf	escreve_string_cor@string^0,c
  1626  007B24  0E7F               	movlw	high STR_1
  1627  007B26  6E04               	movwf	(escreve_string_cor@string+1)^0,c
  1628  007B28  0E00               	movlw	0
  1629  007B2A  6E05               	movwf	escreve_string_cor@cor^0,c
  1630  007B2C  ECED  F03A         	call	_escreve_string_cor	;wreg free
  1631  007B30                     
  1632                           ;teste_nokia_5110.c: 108:     (coordenada_x(0x00), coordenada_y(0x01));
  1633  007B30  0E00               	movlw	0
  1634  007B32  EC1E  F039         	call	_coordenada_x
  1635  007B36  0E01               	movlw	1
  1636  007B38  EC2C  F039         	call	_coordenada_y
  1637  007B3C                     
  1638                           ;teste_nokia_5110.c: 109:     escreve_string_cor("(((TESTE)))", 0b00);
  1639  007B3C  0EBD               	movlw	low STR_2
  1640  007B3E  6E03               	movwf	escreve_string_cor@string^0,c
  1641  007B40  0E7F               	movlw	high STR_2
  1642  007B42  6E04               	movwf	(escreve_string_cor@string+1)^0,c
  1643  007B44  0E00               	movlw	0
  1644  007B46  6E05               	movwf	escreve_string_cor@cor^0,c
  1645  007B48  ECED  F03A         	call	_escreve_string_cor	;wreg free
  1646  007B4C                     
  1647                           ;teste_nokia_5110.c: 110:     _delay((unsigned long)((1000)*(20000000/4000.0)));
  1648  007B4C  0E1A               	movlw	26
  1649  007B4E  6E0E               	movwf	(??_main+1)^0,c
  1650  007B50  0E5E               	movlw	94
  1651  007B52  6E0D               	movwf	??_main^0,c
  1652  007B54  0E6E               	movlw	110
  1653  007B56                     u637:
  1654  007B56  2EE8               	decfsz	wreg,f,c
  1655  007B58  D7FE               	bra	u637
  1656  007B5A  2E0D               	decfsz	??_main^0,f,c
  1657  007B5C  D7FC               	bra	u637
  1658  007B5E  2E0E               	decfsz	(??_main+1)^0,f,c
  1659  007B60  D7FA               	bra	u637
  1660  007B62  D000               	nop2	
  1661  007B64                     
  1662                           ;teste_nokia_5110.c: 112:     limpa_display();
  1663  007B64  EC81  F039         	call	_limpa_display	;wreg free
  1664  007B68                     
  1665                           ;teste_nokia_5110.c: 113:     _delay((unsigned long)((10)*(20000000/4000.0)));
  1666  007B68  0E41               	movlw	65
  1667  007B6A  6E0D               	movwf	??_main^0,c
  1668  007B6C  0EEE               	movlw	238
  1669  007B6E                     u647:
  1670  007B6E  2EE8               	decfsz	wreg,f,c
  1671  007B70  D7FE               	bra	u647
  1672  007B72  2E0D               	decfsz	??_main^0,f,c
  1673  007B74  D7FC               	bra	u647
  1674  007B76  D000               	nop2	
  1675  007B78                     
  1676                           ;teste_nokia_5110.c: 114:     ((coordenada_x(0x00), coordenada_y(0x00)));
  1677  007B78  0E00               	movlw	0
  1678  007B7A  EC1E  F039         	call	_coordenada_x
  1679  007B7E  0E00               	movlw	0
  1680  007B80  EC2C  F039         	call	_coordenada_y
  1681  007B84                     
  1682                           ;teste_nokia_5110.c: 115:     (Envia_Instrucao(0x0C));
  1683  007B84  0E0C               	movlw	12
  1684  007B86  EC00  F039         	call	_Envia_Instrucao
  1685  007B8A                     
  1686                           ;teste_nokia_5110.c: 116:     _delay((unsigned long)((10)*(20000000/4000.0)));
  1687  007B8A  0E41               	movlw	65
  1688  007B8C  6E0D               	movwf	??_main^0,c
  1689  007B8E  0EEE               	movlw	238
  1690  007B90                     u657:
  1691  007B90  2EE8               	decfsz	wreg,f,c
  1692  007B92  D7FE               	bra	u657
  1693  007B94  2E0D               	decfsz	??_main^0,f,c
  1694  007B96  D7FC               	bra	u657
  1695  007B98  D000               	nop2	
  1696  007B9A                     
  1697                           ;teste_nokia_5110.c: 117:     imprime_imagem(imagem);
  1698  007B9A  0EC5               	movlw	low _imagem
  1699  007B9C  6E04               	movwf	imprime_imagem@imagem^0,c
  1700  007B9E  0E7D               	movlw	high _imagem
  1701  007BA0  6E05               	movwf	(imprime_imagem@imagem+1)^0,c
  1702  007BA2  EC19  F03A         	call	_imprime_imagem	;wreg free
  1703  007BA6                     
  1704                           ;teste_nokia_5110.c: 118:     _delay((unsigned long)((1000)*(20000000/4000.0)));
  1705  007BA6  0E1A               	movlw	26
  1706  007BA8  6E0E               	movwf	(??_main+1)^0,c
  1707  007BAA  0E5E               	movlw	94
  1708  007BAC  6E0D               	movwf	??_main^0,c
  1709  007BAE  0E6E               	movlw	110
  1710  007BB0                     u667:
  1711  007BB0  2EE8               	decfsz	wreg,f,c
  1712  007BB2  D7FE               	bra	u667
  1713  007BB4  2E0D               	decfsz	??_main^0,f,c
  1714  007BB6  D7FC               	bra	u667
  1715  007BB8  2E0E               	decfsz	(??_main+1)^0,f,c
  1716  007BBA  D7FA               	bra	u667
  1717  007BBC  D000               	nop2	
  1718  007BBE                     
  1719                           ;teste_nokia_5110.c: 119:     (Envia_Instrucao(0x0D));
  1720  007BBE  0E0D               	movlw	13
  1721  007BC0  EC00  F039         	call	_Envia_Instrucao
  1722  007BC4                     
  1723                           ;teste_nokia_5110.c: 120:     _delay((unsigned long)((1000)*(20000000/4000.0)));
  1724  007BC4  0E1A               	movlw	26
  1725  007BC6  6E0E               	movwf	(??_main+1)^0,c
  1726  007BC8  0E5E               	movlw	94
  1727  007BCA  6E0D               	movwf	??_main^0,c
  1728  007BCC  0E6E               	movlw	110
  1729  007BCE                     u677:
  1730  007BCE  2EE8               	decfsz	wreg,f,c
  1731  007BD0  D7FE               	bra	u677
  1732  007BD2  2E0D               	decfsz	??_main^0,f,c
  1733  007BD4  D7FC               	bra	u677
  1734  007BD6  2E0E               	decfsz	(??_main+1)^0,f,c
  1735  007BD8  D7FA               	bra	u677
  1736  007BDA  D000               	nop2	
  1737  007BDC                     
  1738                           ;teste_nokia_5110.c: 121:     (Envia_Instrucao(0x0C));
  1739  007BDC  0E0C               	movlw	12
  1740  007BDE  EC00  F039         	call	_Envia_Instrucao
  1741  007BE2                     
  1742                           ;teste_nokia_5110.c: 122:     _delay((unsigned long)((1000)*(20000000/4000.0)));
  1743  007BE2  0E1A               	movlw	26
  1744  007BE4  6E0E               	movwf	(??_main+1)^0,c
  1745  007BE6  0E5E               	movlw	94
  1746  007BE8  6E0D               	movwf	??_main^0,c
  1747  007BEA  0E6E               	movlw	110
  1748  007BEC                     u687:
  1749  007BEC  2EE8               	decfsz	wreg,f,c
  1750  007BEE  D7FE               	bra	u687
  1751  007BF0  2E0D               	decfsz	??_main^0,f,c
  1752  007BF2  D7FC               	bra	u687
  1753  007BF4  2E0E               	decfsz	(??_main+1)^0,f,c
  1754  007BF6  D7FA               	bra	u687
  1755  007BF8  D000               	nop2	
  1756  007BFA                     
  1757                           ;teste_nokia_5110.c: 124:     limpa_display();
  1758  007BFA  EC81  F039         	call	_limpa_display	;wreg free
  1759  007BFE                     
  1760                           ;teste_nokia_5110.c: 125:     _delay((unsigned long)((10)*(20000000/4000.0)));
  1761  007BFE  0E41               	movlw	65
  1762  007C00  6E0D               	movwf	??_main^0,c
  1763  007C02  0EEE               	movlw	238
  1764  007C04                     u697:
  1765  007C04  2EE8               	decfsz	wreg,f,c
  1766  007C06  D7FE               	bra	u697
  1767  007C08  2E0D               	decfsz	??_main^0,f,c
  1768  007C0A  D7FC               	bra	u697
  1769  007C0C  D000               	nop2	
  1770  007C0E                     
  1771                           ;teste_nokia_5110.c: 127:     desenha_linha_horizontal(0, 5);
  1772  007C0E  0E05               	movlw	5
  1773  007C10  6E04               	movwf	desenha_linha_horizontal@posicao_y^0,c
  1774  007C12  0E00               	movlw	0
  1775  007C14  EC51  F039         	call	_desenha_linha_horizontal
  1776  007C18                     
  1777                           ;teste_nokia_5110.c: 128:     _delay((unsigned long)((10)*(20000000/4000.0)));
  1778  007C18  0E41               	movlw	65
  1779  007C1A  6E0D               	movwf	??_main^0,c
  1780  007C1C  0EEE               	movlw	238
  1781  007C1E                     u707:
  1782  007C1E  2EE8               	decfsz	wreg,f,c
  1783  007C20  D7FE               	bra	u707
  1784  007C22  2E0D               	decfsz	??_main^0,f,c
  1785  007C24  D7FC               	bra	u707
  1786  007C26  D000               	nop2	
  1787  007C28                     
  1788                           ;teste_nokia_5110.c: 130:     desenha_linha_vertical(3, 0);
  1789  007C28  0E00               	movlw	0
  1790  007C2A  6E04               	movwf	desenha_linha_vertical@posicao_y^0,c
  1791  007C2C  0E03               	movlw	3
  1792  007C2E  ECB6  F039         	call	_desenha_linha_vertical
  1793  007C32                     
  1794                           ;teste_nokia_5110.c: 131:     _delay((unsigned long)((10)*(20000000/4000.0)));
  1795  007C32  0E41               	movlw	65
  1796  007C34  6E0D               	movwf	??_main^0,c
  1797  007C36  0EEE               	movlw	238
  1798  007C38                     u717:
  1799  007C38  2EE8               	decfsz	wreg,f,c
  1800  007C3A  D7FE               	bra	u717
  1801  007C3C  2E0D               	decfsz	??_main^0,f,c
  1802  007C3E  D7FC               	bra	u717
  1803  007C40  D000               	nop2	
  1804  007C42                     
  1805                           ;teste_nokia_5110.c: 133:     (coordenada_x((1 * 6) - 6), coordenada_y(1 - 1));
  1806  007C42  0E00               	movlw	0
  1807  007C44  EC1E  F039         	call	_coordenada_x
  1808  007C48  0E00               	movlw	0
  1809  007C4A  EC2C  F039         	call	_coordenada_y
  1810  007C4E                     
  1811                           ;teste_nokia_5110.c: 134:     escreve_caractere('A');
  1812  007C4E  0E41               	movlw	65
  1813  007C50  EC42  F03A         	call	_escreve_caractere
  1814  007C54                     
  1815                           ;teste_nokia_5110.c: 135:     _delay((unsigned long)((10)*(20000000/4000.0)));
  1816  007C54  0E41               	movlw	65
  1817  007C56  6E0D               	movwf	??_main^0,c
  1818  007C58  0EEE               	movlw	238
  1819  007C5A                     u727:
  1820  007C5A  2EE8               	decfsz	wreg,f,c
  1821  007C5C  D7FE               	bra	u727
  1822  007C5E  2E0D               	decfsz	??_main^0,f,c
  1823  007C60  D7FC               	bra	u727
  1824  007C62  D000               	nop2	
  1825  007C64                     
  1826                           ;teste_nokia_5110.c: 137:     (coordenada_x((2 * 6) - 6), coordenada_y(2 - 1));
  1827  007C64  0E06               	movlw	6
  1828  007C66  EC1E  F039         	call	_coordenada_x
  1829  007C6A  0E01               	movlw	1
  1830  007C6C  EC2C  F039         	call	_coordenada_y
  1831  007C70                     
  1832                           ;teste_nokia_5110.c: 138:     escreve_caractere('A');
  1833  007C70  0E41               	movlw	65
  1834  007C72  EC42  F03A         	call	_escreve_caractere
  1835  007C76                     
  1836                           ;teste_nokia_5110.c: 139:     _delay((unsigned long)((10)*(20000000/4000.0)));
  1837  007C76  0E41               	movlw	65
  1838  007C78  6E0D               	movwf	??_main^0,c
  1839  007C7A  0EEE               	movlw	238
  1840  007C7C                     u737:
  1841  007C7C  2EE8               	decfsz	wreg,f,c
  1842  007C7E  D7FE               	bra	u737
  1843  007C80  2E0D               	decfsz	??_main^0,f,c
  1844  007C82  D7FC               	bra	u737
  1845  007C84  D000               	nop2	
  1846  007C86                     
  1847                           ;teste_nokia_5110.c: 141:     (coordenada_x((3 * 6) - 6), coordenada_y(3 - 1));
  1848  007C86  0E0C               	movlw	12
  1849  007C88  EC1E  F039         	call	_coordenada_x
  1850  007C8C  0E02               	movlw	2
  1851  007C8E  EC2C  F039         	call	_coordenada_y
  1852  007C92                     
  1853                           ;teste_nokia_5110.c: 142:     escreve_caractere('A');
  1854  007C92  0E41               	movlw	65
  1855  007C94  EC42  F03A         	call	_escreve_caractere
  1856  007C98                     
  1857                           ;teste_nokia_5110.c: 143:     _delay((unsigned long)((10)*(20000000/4000.0)));
  1858  007C98  0E41               	movlw	65
  1859  007C9A  6E0D               	movwf	??_main^0,c
  1860  007C9C  0EEE               	movlw	238
  1861  007C9E                     u747:
  1862  007C9E  2EE8               	decfsz	wreg,f,c
  1863  007CA0  D7FE               	bra	u747
  1864  007CA2  2E0D               	decfsz	??_main^0,f,c
  1865  007CA4  D7FC               	bra	u747
  1866  007CA6  D000               	nop2	
  1867  007CA8                     
  1868                           ;teste_nokia_5110.c: 145:     (coordenada_x((1 * 6) - 6), coordenada_y(4 - 1));
  1869  007CA8  0E00               	movlw	0
  1870  007CAA  EC1E  F039         	call	_coordenada_x
  1871  007CAE  0E03               	movlw	3
  1872  007CB0  EC2C  F039         	call	_coordenada_y
  1873  007CB4                     
  1874                           ;teste_nokia_5110.c: 146:     escreve_string("Teste");
  1875  007CB4  0EED               	movlw	low STR_5
  1876  007CB6  6E09               	movwf	escreve_string@string^0,c
  1877  007CB8  0E7F               	movlw	high STR_5
  1878  007CBA  6E0A               	movwf	(escreve_string@string+1)^0,c
  1879  007CBC  EC9B  F039         	call	_escreve_string	;wreg free
  1880  007CC0                     
  1881                           ;teste_nokia_5110.c: 147:     _delay((unsigned long)((10)*(20000000/4000.0)));
  1882  007CC0  0E41               	movlw	65
  1883  007CC2  6E0D               	movwf	??_main^0,c
  1884  007CC4  0EEE               	movlw	238
  1885  007CC6                     u757:
  1886  007CC6  2EE8               	decfsz	wreg,f,c
  1887  007CC8  D7FE               	bra	u757
  1888  007CCA  2E0D               	decfsz	??_main^0,f,c
  1889  007CCC  D7FC               	bra	u757
  1890  007CCE  D000               	nop2	
  1891  007CD0                     
  1892                           ;teste_nokia_5110.c: 149:     (coordenada_x((2 * 6) - 6), coordenada_y(5 - 1));
  1893  007CD0  0E06               	movlw	6
  1894  007CD2  EC1E  F039         	call	_coordenada_x
  1895  007CD6  0E04               	movlw	4
  1896  007CD8  EC2C  F039         	call	_coordenada_y
  1897  007CDC                     
  1898                           ;teste_nokia_5110.c: 150:     escreve_string("Teste");
  1899  007CDC  0EED               	movlw	low STR_5
  1900  007CDE  6E09               	movwf	escreve_string@string^0,c
  1901  007CE0  0E7F               	movlw	high STR_5
  1902  007CE2  6E0A               	movwf	(escreve_string@string+1)^0,c
  1903  007CE4  EC9B  F039         	call	_escreve_string	;wreg free
  1904  007CE8                     
  1905                           ;teste_nokia_5110.c: 151:     _delay((unsigned long)((10)*(20000000/4000.0)));
  1906  007CE8  0E41               	movlw	65
  1907  007CEA  6E0D               	movwf	??_main^0,c
  1908  007CEC  0EEE               	movlw	238
  1909  007CEE                     u767:
  1910  007CEE  2EE8               	decfsz	wreg,f,c
  1911  007CF0  D7FE               	bra	u767
  1912  007CF2  2E0D               	decfsz	??_main^0,f,c
  1913  007CF4  D7FC               	bra	u767
  1914  007CF6  D000               	nop2	
  1915  007CF8                     
  1916                           ;teste_nokia_5110.c: 153:     (coordenada_x((3 * 6) - 6), coordenada_y(6 - 1));
  1917  007CF8  0E0C               	movlw	12
  1918  007CFA  EC1E  F039         	call	_coordenada_x
  1919  007CFE  0E05               	movlw	5
  1920  007D00  EC2C  F039         	call	_coordenada_y
  1921  007D04                     
  1922                           ;teste_nokia_5110.c: 154:     escreve_string("Teste");
  1923  007D04  0EED               	movlw	low STR_5
  1924  007D06  6E09               	movwf	escreve_string@string^0,c
  1925  007D08  0E7F               	movlw	high STR_5
  1926  007D0A  6E0A               	movwf	(escreve_string@string+1)^0,c
  1927  007D0C  EC9B  F039         	call	_escreve_string	;wreg free
  1928  007D10                     
  1929                           ;teste_nokia_5110.c: 155:     _delay((unsigned long)((1000)*(20000000/4000.0)));
  1930  007D10  0E1A               	movlw	26
  1931  007D12  6E0E               	movwf	(??_main+1)^0,c
  1932  007D14  0E5E               	movlw	94
  1933  007D16  6E0D               	movwf	??_main^0,c
  1934  007D18  0E6E               	movlw	110
  1935  007D1A                     u777:
  1936  007D1A  2EE8               	decfsz	wreg,f,c
  1937  007D1C  D7FE               	bra	u777
  1938  007D1E  2E0D               	decfsz	??_main^0,f,c
  1939  007D20  D7FC               	bra	u777
  1940  007D22  2E0E               	decfsz	(??_main+1)^0,f,c
  1941  007D24  D7FA               	bra	u777
  1942  007D26  D000               	nop2	
  1943  007D28                     
  1944                           ;teste_nokia_5110.c: 157:     limpa_display();
  1945  007D28  EC81  F039         	call	_limpa_display	;wreg free
  1946  007D2C                     
  1947                           ;teste_nokia_5110.c: 159:     TRISDbits.TRISD2 = 0;
  1948  007D2C  9495               	bcf	149,2,c	;volatile
  1949  007D2E                     
  1950                           ;teste_nokia_5110.c: 160:     PORTDbits.RD2 = 1;
  1951  007D2E  8483               	bsf	131,2,c	;volatile
  1952  007D30                     l1770:
  1953                           
  1954                           ;teste_nokia_5110.c: 163:     opcao = 3;
  1955  007D30  0E03               	movlw	3
  1956  007D32  6E0F               	movwf	_opcao^0,c
  1957  007D34                     l1772:
  1958                           
  1959                           ;teste_nokia_5110.c: 165:     {;teste_nokia_5110.c: 176:         escreve_menu();
  1960  007D34  EC4C  F03B         	call	_escreve_menu	;wreg free
  1961  007D38                     
  1962                           ;teste_nokia_5110.c: 178:         if(PORTBbits.RB7 == 1){
  1963  007D38  AE81               	btfss	129,7,c	;volatile
  1964  007D3A  EFA1  F03E         	goto	u461
  1965  007D3E  EFA3  F03E         	goto	u460
  1966  007D42                     u461:
  1967  007D42  EFB3  F03E         	goto	l1782
  1968  007D46                     u460:
  1969  007D46                     l75:
  1970  007D46  BE81               	btfsc	129,7,c	;volatile
  1971  007D48  EFA8  F03E         	goto	u471
  1972  007D4C  EFAA  F03E         	goto	u470
  1973  007D50                     u471:
  1974  007D50  EFA3  F03E         	goto	l75
  1975  007D54                     u470:
  1976  007D54                     
  1977                           ;teste_nokia_5110.c: 180:             _delay(50000);
  1978  007D54  0E41               	movlw	65
  1979  007D56  6E0D               	movwf	??_main^0,c
  1980  007D58  0EEE               	movlw	238
  1981  007D5A                     u787:
  1982  007D5A  2EE8               	decfsz	wreg,f,c
  1983  007D5C  D7FE               	bra	u787
  1984  007D5E  2E0D               	decfsz	??_main^0,f,c
  1985  007D60  D7FC               	bra	u787
  1986  007D62  D000               	nop2	
  1987  007D64                     
  1988                           ;teste_nokia_5110.c: 181:             opcao--;
  1989  007D64  060F               	decf	_opcao^0,f,c
  1990  007D66                     l1782:
  1991                           
  1992                           ;teste_nokia_5110.c: 183:         if(PORTBbits.RB6 == 1){
  1993  007D66  AC81               	btfss	129,6,c	;volatile
  1994  007D68  EFB8  F03E         	goto	u481
  1995  007D6C  EFBA  F03E         	goto	u480
  1996  007D70                     u481:
  1997  007D70  EFCA  F03E         	goto	l78
  1998  007D74                     u480:
  1999  007D74                     l79:
  2000  007D74  BC81               	btfsc	129,6,c	;volatile
  2001  007D76  EFBF  F03E         	goto	u491
  2002  007D7A  EFC1  F03E         	goto	u490
  2003  007D7E                     u491:
  2004  007D7E  EFBA  F03E         	goto	l79
  2005  007D82                     u490:
  2006  007D82                     
  2007                           ;teste_nokia_5110.c: 185:             _delay(50000);
  2008  007D82  0E41               	movlw	65
  2009  007D84  6E0D               	movwf	??_main^0,c
  2010  007D86  0EEE               	movlw	238
  2011  007D88                     u797:
  2012  007D88  2EE8               	decfsz	wreg,f,c
  2013  007D8A  D7FE               	bra	u797
  2014  007D8C  2E0D               	decfsz	??_main^0,f,c
  2015  007D8E  D7FC               	bra	u797
  2016  007D90  D000               	nop2	
  2017  007D92                     
  2018                           ;teste_nokia_5110.c: 186:             opcao++;
  2019  007D92  2A0F               	incf	_opcao^0,f,c
  2020  007D94                     l78:
  2021                           
  2022                           ;teste_nokia_5110.c: 188:         if(opcao == 2) opcao = 6;
  2023  007D94  0E02               	movlw	2
  2024  007D96  180F               	xorwf	_opcao^0,w,c
  2025  007D98  A4D8               	btfss	status,2,c
  2026  007D9A  EFD1  F03E         	goto	u501
  2027  007D9E  EFD3  F03E         	goto	u500
  2028  007DA2                     u501:
  2029  007DA2  EFD5  F03E         	goto	l1792
  2030  007DA6                     u500:
  2031  007DA6  0E06               	movlw	6
  2032  007DA8  6E0F               	movwf	_opcao^0,c
  2033  007DAA                     l1792:
  2034                           
  2035                           ;teste_nokia_5110.c: 189:         if(opcao == 7) opcao = 3;
  2036  007DAA  0E07               	movlw	7
  2037  007DAC  180F               	xorwf	_opcao^0,w,c
  2038  007DAE  A4D8               	btfss	status,2,c
  2039  007DB0  EFDC  F03E         	goto	u511
  2040  007DB4  EFDE  F03E         	goto	u510
  2041  007DB8                     u511:
  2042  007DB8  EF9A  F03E         	goto	l1772
  2043  007DBC                     u510:
  2044  007DBC  EF98  F03E         	goto	l1770
  2045  007DC0  EF00  F000         	goto	start
  2046  007DC4                     __end_of_main:
  2047                           	callstack 0
  2048                           
  2049 ;; *************** function _testa_display *****************
  2050 ;; Defined at:
  2051 ;;		line 70 in file "nokia_5110.c"
  2052 ;; Parameters:    Size  Location     Type
  2053 ;;		None
  2054 ;; Auto vars:     Size  Location     Type
  2055 ;;  x               1    4[COMRAM] unsigned char 
  2056 ;;  y               1    3[COMRAM] unsigned char 
  2057 ;; Return value:  Size  Location     Type
  2058 ;;                  1    wreg      void 
  2059 ;; Registers used:
  2060 ;;		wreg, status,2, status,0, cstack
  2061 ;; Tracked objects:
  2062 ;;		On entry : 0/0
  2063 ;;		On exit  : 0/0
  2064 ;;		Unchanged: 0/0
  2065 ;; Data sizes:     COMRAM   BANK0   BANK1   BANK2   BANK3   BANK4   BANK5   BANK6   BANK7
  2066 ;;      Params:         0       0       0       0       0       0       0       0       0
  2067 ;;      Locals:         2       0       0       0       0       0       0       0       0
  2068 ;;      Temps:          0       0       0       0       0       0       0       0       0
  2069 ;;      Totals:         2       0       0       0       0       0       0       0       0
  2070 ;;Total ram usage:        2 bytes
  2071 ;; Hardware stack levels used: 1
  2072 ;; Hardware stack levels required when called: 3
  2073 ;; This function calls:
  2074 ;;		_Envia_Dado
  2075 ;;		_coordenada_x
  2076 ;;		_coordenada_y
  2077 ;; This function is called by:
  2078 ;;		_main
  2079 ;; This function uses a non-reentrant model
  2080 ;;
  2081                           
  2082                           	psect	text1
  2083  0073A8                     __ptext1:
  2084                           	callstack 0
  2085  0073A8                     _testa_display:
  2086                           	callstack 27
  2087  0073A8                     
  2088                           ;nokia_5110.c: 72:     (coordenada_x(0x00), coordenada_y(0x00));
  2089  0073A8  0E00               	movlw	0
  2090  0073AA  EC1E  F039         	call	_coordenada_x
  2091  0073AE  0E00               	movlw	0
  2092  0073B0  EC2C  F039         	call	_coordenada_y
  2093  0073B4                     
  2094                           ;nokia_5110.c: 73:     for(unsigned char y = 0; y < 6; y++)
  2095  0073B4  0E00               	movlw	0
  2096  0073B6  6E04               	movwf	testa_display@y^0,c
  2097  0073B8                     l1102:
  2098                           
  2099                           ;nokia_5110.c: 74:     {;nokia_5110.c: 75:         for(unsigned char x = 0; x < 84; x++)
  2100  0073B8  0E00               	movlw	0
  2101  0073BA  6E05               	movwf	testa_display@x^0,c
  2102  0073BC                     l1108:
  2103                           
  2104                           ;nokia_5110.c: 76:         {;nokia_5110.c: 77:             Envia_Dado(0xFF);
  2105  0073BC  0EFF               	movlw	255
  2106  0073BE  EC08  F039         	call	_Envia_Dado
  2107  0073C2                     
  2108                           ;nokia_5110.c: 78:         }
  2109  0073C2  2A05               	incf	testa_display@x^0,f,c
  2110  0073C4  0E53               	movlw	83
  2111  0073C6  6405               	cpfsgt	testa_display@x^0,c
  2112  0073C8  EFE8  F039         	goto	u131
  2113  0073CC  EFEA  F039         	goto	u130
  2114  0073D0                     u131:
  2115  0073D0  EFDE  F039         	goto	l1108
  2116  0073D4                     u130:
  2117  0073D4                     
  2118                           ;nokia_5110.c: 79:     }
  2119  0073D4  2A04               	incf	testa_display@y^0,f,c
  2120  0073D6  0E05               	movlw	5
  2121  0073D8  6404               	cpfsgt	testa_display@y^0,c
  2122  0073DA  EFF1  F039         	goto	u141
  2123  0073DE  EFF3  F039         	goto	u140
  2124  0073E2                     u141:
  2125  0073E2  EFDC  F039         	goto	l1102
  2126  0073E6                     u140:
  2127  0073E6  0012               	return		;funcret
  2128  0073E8                     __end_of_testa_display:
  2129                           	callstack 0
  2130                           
  2131 ;; *************** function _testa_caracteres *****************
  2132 ;; Defined at:
  2133 ;;		line 83 in file "nokia_5110.c"
  2134 ;; Parameters:    Size  Location     Type
  2135 ;;		None
  2136 ;; Auto vars:     Size  Location     Type
  2137 ;;  c               1    8[COMRAM] unsigned char 
  2138 ;; Return value:  Size  Location     Type
  2139 ;;                  1    wreg      void 
  2140 ;; Registers used:
  2141 ;;		wreg, fsr2l, fsr2h, status,2, status,0, prodl, prodh, cstack
  2142 ;; Tracked objects:
  2143 ;;		On entry : 0/0
  2144 ;;		On exit  : 0/0
  2145 ;;		Unchanged: 0/0
  2146 ;; Data sizes:     COMRAM   BANK0   BANK1   BANK2   BANK3   BANK4   BANK5   BANK6   BANK7
  2147 ;;      Params:         0       0       0       0       0       0       0       0       0
  2148 ;;      Locals:         1       0       0       0       0       0       0       0       0
  2149 ;;      Temps:          0       0       0       0       0       0       0       0       0
  2150 ;;      Totals:         1       0       0       0       0       0       0       0       0
  2151 ;;Total ram usage:        1 bytes
  2152 ;; Hardware stack levels used: 1
  2153 ;; Hardware stack levels required when called: 3
  2154 ;; This function calls:
  2155 ;;		_coordenada_x
  2156 ;;		_coordenada_y
  2157 ;;		_escreve_caractere
  2158 ;; This function is called by:
  2159 ;;		_main
  2160 ;; This function uses a non-reentrant model
  2161 ;;
  2162                           
  2163                           	psect	text2
  2164  0074DA                     __ptext2:
  2165                           	callstack 0
  2166  0074DA                     _testa_caracteres:
  2167                           	callstack 27
  2168  0074DA                     
  2169                           ;nokia_5110.c: 85:     (coordenada_x(0x00), coordenada_y(0x00));
  2170  0074DA  0E00               	movlw	0
  2171  0074DC  EC1E  F039         	call	_coordenada_x
  2172  0074E0  0E00               	movlw	0
  2173  0074E2  EC2C  F039         	call	_coordenada_y
  2174  0074E6                     
  2175                           ;nokia_5110.c: 86:     for(unsigned char c = 0x30; c <= 'z'; c++)
  2176  0074E6  0E30               	movlw	48
  2177  0074E8  6E09               	movwf	testa_caracteres@c^0,c
  2178  0074EA                     l1126:
  2179                           
  2180                           ;nokia_5110.c: 87:     {;nokia_5110.c: 88:         if(c == 0x3A) c = 0x41;
  2181  0074EA  0E3A               	movlw	58
  2182  0074EC  1809               	xorwf	testa_caracteres@c^0,w,c
  2183  0074EE  A4D8               	btfss	status,2,c
  2184  0074F0  EF7C  F03A         	goto	u151
  2185  0074F4  EF7E  F03A         	goto	u150
  2186  0074F8                     u151:
  2187  0074F8  EF80  F03A         	goto	l1130
  2188  0074FC                     u150:
  2189  0074FC  0E41               	movlw	65
  2190  0074FE  6E09               	movwf	testa_caracteres@c^0,c
  2191  007500                     l1130:
  2192                           
  2193                           ;nokia_5110.c: 89:         if(c == 0x5B) c = 0x61;
  2194  007500  0E5B               	movlw	91
  2195  007502  1809               	xorwf	testa_caracteres@c^0,w,c
  2196  007504  A4D8               	btfss	status,2,c
  2197  007506  EF87  F03A         	goto	u161
  2198  00750A  EF89  F03A         	goto	u160
  2199  00750E                     u161:
  2200  00750E  EF8B  F03A         	goto	l1134
  2201  007512                     u160:
  2202  007512  0E61               	movlw	97
  2203  007514  6E09               	movwf	testa_caracteres@c^0,c
  2204  007516                     l1134:
  2205                           
  2206                           ;nokia_5110.c: 90:         escreve_caractere(c);
  2207  007516  5009               	movf	testa_caracteres@c^0,w,c
  2208  007518  EC42  F03A         	call	_escreve_caractere
  2209  00751C                     
  2210                           ;nokia_5110.c: 91:     }
  2211  00751C  2A09               	incf	testa_caracteres@c^0,f,c
  2212  00751E  0E7A               	movlw	122
  2213  007520  6409               	cpfsgt	testa_caracteres@c^0,c
  2214  007522  EF95  F03A         	goto	u171
  2215  007526  EF97  F03A         	goto	u170
  2216  00752A                     u171:
  2217  00752A  EF75  F03A         	goto	l1126
  2218  00752E                     u170:
  2219  00752E  0012               	return		;funcret
  2220  007530                     __end_of_testa_caracteres:
  2221                           	callstack 0
  2222                           
  2223 ;; *************** function _limpa_display *****************
  2224 ;; Defined at:
  2225 ;;		line 145 in file "nokia_5110.c"
  2226 ;; Parameters:    Size  Location     Type
  2227 ;;		None
  2228 ;; Auto vars:     Size  Location     Type
  2229 ;;  x               1    3[COMRAM] unsigned char 
  2230 ;;  y               1    2[COMRAM] unsigned char 
  2231 ;; Return value:  Size  Location     Type
  2232 ;;                  1    wreg      void 
  2233 ;; Registers used:
  2234 ;;		wreg, status,2, status,0, cstack
  2235 ;; Tracked objects:
  2236 ;;		On entry : 0/0
  2237 ;;		On exit  : 0/0
  2238 ;;		Unchanged: 0/0
  2239 ;; Data sizes:     COMRAM   BANK0   BANK1   BANK2   BANK3   BANK4   BANK5   BANK6   BANK7
  2240 ;;      Params:         0       0       0       0       0       0       0       0       0
  2241 ;;      Locals:         2       0       0       0       0       0       0       0       0
  2242 ;;      Temps:          0       0       0       0       0       0       0       0       0
  2243 ;;      Totals:         2       0       0       0       0       0       0       0       0
  2244 ;;Total ram usage:        2 bytes
  2245 ;; Hardware stack levels used: 1
  2246 ;; Hardware stack levels required when called: 2
  2247 ;; This function calls:
  2248 ;;		_Envia_Dado
  2249 ;; This function is called by:
  2250 ;;		_main
  2251 ;; This function uses a non-reentrant model
  2252 ;;
  2253                           
  2254                           	psect	text3
  2255  007302                     __ptext3:
  2256                           	callstack 0
  2257  007302                     _limpa_display:
  2258                           	callstack 28
  2259  007302                     
  2260                           ;nokia_5110.c: 147:     for(unsigned char y = 0; y < 6; y++)
  2261  007302  0E00               	movlw	0
  2262  007304  6E03               	movwf	limpa_display@y^0,c
  2263  007306                     l1078:
  2264                           
  2265                           ;nokia_5110.c: 148:     {;nokia_5110.c: 149:         for(unsigned char x = 0; x < 84; x+
      +                          +)
  2266  007306  0E00               	movlw	0
  2267  007308  6E04               	movwf	limpa_display@x^0,c
  2268  00730A                     l1084:
  2269                           
  2270                           ;nokia_5110.c: 150:         {;nokia_5110.c: 151:             Envia_Dado(0x00);
  2271  00730A  0E00               	movlw	0
  2272  00730C  EC08  F039         	call	_Envia_Dado
  2273  007310                     
  2274                           ;nokia_5110.c: 152:         }
  2275  007310  2A04               	incf	limpa_display@x^0,f,c
  2276  007312  0E53               	movlw	83
  2277  007314  6404               	cpfsgt	limpa_display@x^0,c
  2278  007316  EF8F  F039         	goto	u111
  2279  00731A  EF91  F039         	goto	u110
  2280  00731E                     u111:
  2281  00731E  EF85  F039         	goto	l1084
  2282  007322                     u110:
  2283  007322                     
  2284                           ;nokia_5110.c: 153:     }
  2285  007322  2A03               	incf	limpa_display@y^0,f,c
  2286  007324  0E05               	movlw	5
  2287  007326  6403               	cpfsgt	limpa_display@y^0,c
  2288  007328  EF98  F039         	goto	u121
  2289  00732C  EF9A  F039         	goto	u120
  2290  007330                     u121:
  2291  007330  EF83  F039         	goto	l1078
  2292  007334                     u120:
  2293  007334  0012               	return		;funcret
  2294  007336                     __end_of_limpa_display:
  2295                           	callstack 0
  2296                           
  2297 ;; *************** function _imprime_imagem *****************
  2298 ;; Defined at:
  2299 ;;		line 132 in file "nokia_5110.c"
  2300 ;; Parameters:    Size  Location     Type
  2301 ;;  imagem          2    3[COMRAM] PTR const unsigned char 
  2302 ;;		 -> imagem(504), 
  2303 ;; Auto vars:     Size  Location     Type
  2304 ;;  x               2    7[COMRAM] unsigned int 
  2305 ;; Return value:  Size  Location     Type
  2306 ;;                  1    wreg      void 
  2307 ;; Registers used:
  2308 ;;		wreg, status,2, status,0, tblptrl, tblptrh, tblptru, cstack
  2309 ;; Tracked objects:
  2310 ;;		On entry : 0/0
  2311 ;;		On exit  : 0/0
  2312 ;;		Unchanged: 0/0
  2313 ;; Data sizes:     COMRAM   BANK0   BANK1   BANK2   BANK3   BANK4   BANK5   BANK6   BANK7
  2314 ;;      Params:         2       0       0       0       0       0       0       0       0
  2315 ;;      Locals:         2       0       0       0       0       0       0       0       0
  2316 ;;      Temps:          2       0       0       0       0       0       0       0       0
  2317 ;;      Totals:         6       0       0       0       0       0       0       0       0
  2318 ;;Total ram usage:        6 bytes
  2319 ;; Hardware stack levels used: 1
  2320 ;; Hardware stack levels required when called: 3
  2321 ;; This function calls:
  2322 ;;		_Escrita_SPI
  2323 ;;		_coordenada_x
  2324 ;;		_coordenada_y
  2325 ;; This function is called by:
  2326 ;;		_main
  2327 ;; This function uses a non-reentrant model
  2328 ;;
  2329                           
  2330                           	psect	text4
  2331  007432                     __ptext4:
  2332                           	callstack 0
  2333  007432                     _imprime_imagem:
  2334                           	callstack 27
  2335  007432                     
  2336                           ;nokia_5110.c: 132: void imprime_imagem(const unsigned char *imagem);nokia_5110.c: 133: 
      +                          {;nokia_5110.c: 134:     (coordenada_x(0x00), coordenada_y(0x00));
  2337  007432  0E00               	movlw	0
  2338  007434  EC1E  F039         	call	_coordenada_x
  2339  007438  0E00               	movlw	0
  2340  00743A  EC2C  F039         	call	_coordenada_y
  2341  00743E                     
  2342                           ;nokia_5110.c: 135:     PORTEbits.RE1 = 0;
  2343  00743E  9284               	bcf	132,1,c	;volatile
  2344  007440                     
  2345                           ;nokia_5110.c: 136:     PORTEbits.RE2 = 1;
  2346  007440  8484               	bsf	132,2,c	;volatile
  2347  007442                     
  2348                           ;nokia_5110.c: 137:     for(unsigned int x = 0; x < 504; x++)
  2349  007442  0E00               	movlw	0
  2350  007444  6E09               	movwf	(imprime_imagem@x+1)^0,c
  2351  007446  0E00               	movlw	0
  2352  007448  6E08               	movwf	imprime_imagem@x^0,c
  2353  00744A                     l1536:
  2354                           
  2355                           ;nokia_5110.c: 138:     {;nokia_5110.c: 139:         Escrita_SPI(imagem[x]);
  2356  00744A  5008               	movf	imprime_imagem@x^0,w,c
  2357  00744C  2404               	addwf	imprime_imagem@imagem^0,w,c
  2358  00744E  6E06               	movwf	??_imprime_imagem^0,c
  2359  007450  5009               	movf	(imprime_imagem@x+1)^0,w,c
  2360  007452  2005               	addwfc	(imprime_imagem@imagem+1)^0,w,c
  2361  007454  6E07               	movwf	(??_imprime_imagem+1)^0,c
  2362  007456  C006  FFF6         	movff	??_imprime_imagem,tblptrl
  2363  00745A  C007  FFF7         	movff	??_imprime_imagem+1,tblptrh
  2364  00745E                     	if	0	;tblptru may be non-zero
  2365  00745E                     	endif
  2366  00745E                     	if	0	;tblptru may be non-zero
  2367  00745E                     	endif
  2368  00745E  0008               	tblrd		*
  2369  007460  50F5               	movf	tablat,w,c
  2370  007462  EC10  F039         	call	_Escrita_SPI
  2371  007466                     
  2372                           ;nokia_5110.c: 140:     }
  2373  007466  4A08               	infsnz	imprime_imagem@x^0,f,c
  2374  007468  2A09               	incf	(imprime_imagem@x+1)^0,f,c
  2375  00746A  0EF8               	movlw	248
  2376  00746C  5C08               	subwf	imprime_imagem@x^0,w,c
  2377  00746E  0E01               	movlw	1
  2378  007470  5809               	subwfb	(imprime_imagem@x+1)^0,w,c
  2379  007472  A0D8               	btfss	status,0,c
  2380  007474  EF3E  F03A         	goto	u401
  2381  007478  EF40  F03A         	goto	u400
  2382  00747C                     u401:
  2383  00747C  EF25  F03A         	goto	l1536
  2384  007480                     u400:
  2385  007480                     
  2386                           ;nokia_5110.c: 141:     PORTEbits.RE1 = 1;
  2387  007480  8284               	bsf	132,1,c	;volatile
  2388  007482  0012               	return		;funcret
  2389  007484                     __end_of_imprime_imagem:
  2390                           	callstack 0
  2391                           
  2392 ;; *************** function _escreve_menu *****************
  2393 ;; Defined at:
  2394 ;;		line 211 in file "teste_nokia_5110.c"
  2395 ;; Parameters:    Size  Location     Type
  2396 ;;		None
  2397 ;; Auto vars:     Size  Location     Type
  2398 ;;		None
  2399 ;; Return value:  Size  Location     Type
  2400 ;;                  1    wreg      void 
  2401 ;; Registers used:
  2402 ;;		wreg, fsr2l, fsr2h, status,2, status,0, tblptrl, tblptrh, tblptru, prodl, prodh, cstack
  2403 ;; Tracked objects:
  2404 ;;		On entry : 0/0
  2405 ;;		On exit  : 0/0
  2406 ;;		Unchanged: 0/0
  2407 ;; Data sizes:     COMRAM   BANK0   BANK1   BANK2   BANK3   BANK4   BANK5   BANK6   BANK7
  2408 ;;      Params:         0       0       0       0       0       0       0       0       0
  2409 ;;      Locals:         0       0       0       0       0       0       0       0       0
  2410 ;;      Temps:          0       0       0       0       0       0       0       0       0
  2411 ;;      Totals:         0       0       0       0       0       0       0       0       0
  2412 ;;Total ram usage:        0 bytes
  2413 ;; Hardware stack levels used: 1
  2414 ;; Hardware stack levels required when called: 4
  2415 ;; This function calls:
  2416 ;;		_coordenada_x
  2417 ;;		_coordenada_y
  2418 ;;		_desenha_linha_horizontal
  2419 ;;		_escreve_string
  2420 ;;		_escreve_string_cor
  2421 ;; This function is called by:
  2422 ;;		_main
  2423 ;; This function uses a non-reentrant model
  2424 ;;
  2425                           
  2426                           	psect	text5
  2427  007698                     __ptext5:
  2428                           	callstack 0
  2429  007698                     _escreve_menu:
  2430                           	callstack 26
  2431  007698                     
  2432                           ;teste_nokia_5110.c: 212:     ((coordenada_x(0x00), coordenada_y(0x00)));
  2433  007698  0E00               	movlw	0
  2434  00769A  EC1E  F039         	call	_coordenada_x
  2435  00769E  0E00               	movlw	0
  2436  0076A0  EC2C  F039         	call	_coordenada_y
  2437                           
  2438                           ;teste_nokia_5110.c: 213:     (coordenada_x((6 * 6) - 6), coordenada_y(1 - 1));
  2439  0076A4  0E1E               	movlw	30
  2440  0076A6  EC1E  F039         	call	_coordenada_x
  2441  0076AA  0E00               	movlw	0
  2442  0076AC  EC2C  F039         	call	_coordenada_y
  2443  0076B0                     
  2444                           ;teste_nokia_5110.c: 214:     escreve_string("MENU");
  2445  0076B0  0EF9               	movlw	low STR_8
  2446  0076B2  6E09               	movwf	escreve_string@string^0,c
  2447  0076B4  0E7F               	movlw	high STR_8
  2448  0076B6  6E0A               	movwf	(escreve_string@string+1)^0,c
  2449  0076B8  EC9B  F039         	call	_escreve_string	;wreg free
  2450  0076BC                     
  2451                           ;teste_nokia_5110.c: 215:     desenha_linha_horizontal(0, 1);
  2452  0076BC  0E01               	movlw	1
  2453  0076BE  6E04               	movwf	desenha_linha_horizontal@posicao_y^0,c
  2454  0076C0  0E00               	movlw	0
  2455  0076C2  EC51  F039         	call	_desenha_linha_horizontal
  2456  0076C6                     
  2457                           ;teste_nokia_5110.c: 216:     (coordenada_x((1 * 6) - 6), coordenada_y(3 - 1));
  2458  0076C6  0E00               	movlw	0
  2459  0076C8  EC1E  F039         	call	_coordenada_x
  2460  0076CC  0E02               	movlw	2
  2461  0076CE  EC2C  F039         	call	_coordenada_y
  2462  0076D2                     
  2463                           ;teste_nokia_5110.c: 217:     if(opcao == 3) escreve_string_cor("Opcao 1:", 0b00);
  2464  0076D2  0E03               	movlw	3
  2465  0076D4  180F               	xorwf	_opcao^0,w,c
  2466  0076D6  A4D8               	btfss	status,2,c
  2467  0076D8  EF70  F03B         	goto	u421
  2468  0076DC  EF72  F03B         	goto	u420
  2469  0076E0                     u421:
  2470  0076E0  EF7C  F03B         	goto	l1572
  2471  0076E4                     u420:
  2472  0076E4  0EC9               	movlw	low STR_9
  2473  0076E6  6E03               	movwf	escreve_string_cor@string^0,c
  2474  0076E8  0E7F               	movlw	high STR_9
  2475  0076EA  6E04               	movwf	(escreve_string_cor@string+1)^0,c
  2476  0076EC  0E00               	movlw	0
  2477  0076EE  6E05               	movwf	escreve_string_cor@cor^0,c
  2478  0076F0  ECED  F03A         	call	_escreve_string_cor	;wreg free
  2479  0076F4  EF82  F03B         	goto	l1574
  2480  0076F8                     l1572:
  2481  0076F8  0EC9               	movlw	low STR_9
  2482  0076FA  6E09               	movwf	escreve_string@string^0,c
  2483  0076FC  0E7F               	movlw	high STR_9
  2484  0076FE  6E0A               	movwf	(escreve_string@string+1)^0,c
  2485  007700  EC9B  F039         	call	_escreve_string	;wreg free
  2486  007704                     l1574:
  2487                           
  2488                           ;teste_nokia_5110.c: 219:     (coordenada_x((1 * 6) - 6), coordenada_y(4 - 1));
  2489  007704  0E00               	movlw	0
  2490  007706  EC1E  F039         	call	_coordenada_x
  2491  00770A  0E03               	movlw	3
  2492  00770C  EC2C  F039         	call	_coordenada_y
  2493  007710                     
  2494                           ;teste_nokia_5110.c: 220:     if(opcao == 4) escreve_string_cor("Opcao 2:", 0b00);
  2495  007710  0E04               	movlw	4
  2496  007712  180F               	xorwf	_opcao^0,w,c
  2497  007714  A4D8               	btfss	status,2,c
  2498  007716  EF8F  F03B         	goto	u431
  2499  00771A  EF91  F03B         	goto	u430
  2500  00771E                     u431:
  2501  00771E  EF9B  F03B         	goto	l1582
  2502  007722                     u430:
  2503  007722  0ED2               	movlw	low STR_11
  2504  007724  6E03               	movwf	escreve_string_cor@string^0,c
  2505  007726  0E7F               	movlw	high STR_11
  2506  007728  6E04               	movwf	(escreve_string_cor@string+1)^0,c
  2507  00772A  0E00               	movlw	0
  2508  00772C  6E05               	movwf	escreve_string_cor@cor^0,c
  2509  00772E  ECED  F03A         	call	_escreve_string_cor	;wreg free
  2510  007732  EFA1  F03B         	goto	l1584
  2511  007736                     l1582:
  2512  007736  0ED2               	movlw	low STR_11
  2513  007738  6E09               	movwf	escreve_string@string^0,c
  2514  00773A  0E7F               	movlw	high STR_11
  2515  00773C  6E0A               	movwf	(escreve_string@string+1)^0,c
  2516  00773E  EC9B  F039         	call	_escreve_string	;wreg free
  2517  007742                     l1584:
  2518                           
  2519                           ;teste_nokia_5110.c: 222:     (coordenada_x((1 * 6) - 6), coordenada_y(5 - 1));
  2520  007742  0E00               	movlw	0
  2521  007744  EC1E  F039         	call	_coordenada_x
  2522  007748  0E04               	movlw	4
  2523  00774A  EC2C  F039         	call	_coordenada_y
  2524  00774E                     
  2525                           ;teste_nokia_5110.c: 223:     if(opcao == 5) escreve_string_cor("Opcao 3:", 0b00);
  2526  00774E  0E05               	movlw	5
  2527  007750  180F               	xorwf	_opcao^0,w,c
  2528  007752  A4D8               	btfss	status,2,c
  2529  007754  EFAE  F03B         	goto	u441
  2530  007758  EFB0  F03B         	goto	u440
  2531  00775C                     u441:
  2532  00775C  EFBA  F03B         	goto	l1592
  2533  007760                     u440:
  2534  007760  0EDB               	movlw	low STR_13
  2535  007762  6E03               	movwf	escreve_string_cor@string^0,c
  2536  007764  0E7F               	movlw	high STR_13
  2537  007766  6E04               	movwf	(escreve_string_cor@string+1)^0,c
  2538  007768  0E00               	movlw	0
  2539  00776A  6E05               	movwf	escreve_string_cor@cor^0,c
  2540  00776C  ECED  F03A         	call	_escreve_string_cor	;wreg free
  2541  007770  EFC0  F03B         	goto	l1594
  2542  007774                     l1592:
  2543  007774  0EDB               	movlw	low STR_13
  2544  007776  6E09               	movwf	escreve_string@string^0,c
  2545  007778  0E7F               	movlw	high STR_13
  2546  00777A  6E0A               	movwf	(escreve_string@string+1)^0,c
  2547  00777C  EC9B  F039         	call	_escreve_string	;wreg free
  2548  007780                     l1594:
  2549                           
  2550                           ;teste_nokia_5110.c: 225:     (coordenada_x((1 * 6) - 6), coordenada_y(6 - 1));
  2551  007780  0E00               	movlw	0
  2552  007782  EC1E  F039         	call	_coordenada_x
  2553  007786  0E05               	movlw	5
  2554  007788  EC2C  F039         	call	_coordenada_y
  2555  00778C                     
  2556                           ;teste_nokia_5110.c: 226:     if(opcao == 6) escreve_string_cor("Opcao 4:", 0b00);
  2557  00778C  0E06               	movlw	6
  2558  00778E  180F               	xorwf	_opcao^0,w,c
  2559  007790  A4D8               	btfss	status,2,c
  2560  007792  EFCD  F03B         	goto	u451
  2561  007796  EFCF  F03B         	goto	u450
  2562  00779A                     u451:
  2563  00779A  EFD9  F03B         	goto	l1602
  2564  00779E                     u450:
  2565  00779E  0EE4               	movlw	low STR_15
  2566  0077A0  6E03               	movwf	escreve_string_cor@string^0,c
  2567  0077A2  0E7F               	movlw	high STR_15
  2568  0077A4  6E04               	movwf	(escreve_string_cor@string+1)^0,c
  2569  0077A6  0E00               	movlw	0
  2570  0077A8  6E05               	movwf	escreve_string_cor@cor^0,c
  2571  0077AA  ECED  F03A         	call	_escreve_string_cor	;wreg free
  2572  0077AE  EFDF  F03B         	goto	l100
  2573  0077B2                     l1602:
  2574  0077B2  0EE4               	movlw	low STR_15
  2575  0077B4  6E09               	movwf	escreve_string@string^0,c
  2576  0077B6  0E7F               	movlw	high STR_15
  2577  0077B8  6E0A               	movwf	(escreve_string@string+1)^0,c
  2578  0077BA  EC9B  F039         	call	_escreve_string	;wreg free
  2579  0077BE                     l100:
  2580  0077BE  0012               	return		;funcret
  2581  0077C0                     __end_of_escreve_menu:
  2582                           	callstack 0
  2583                           
  2584 ;; *************** function _escreve_string_cor *****************
  2585 ;; Defined at:
  2586 ;;		line 114 in file "nokia_5110.c"
  2587 ;; Parameters:    Size  Location     Type
  2588 ;;  string          2    2[COMRAM] PTR unsigned char 
  2589 ;;		 -> STR_15(9), STR_13(9), STR_11(9), STR_9(9), 
  2590 ;;		 -> STR_4(12), STR_3(6), 
  2591 ;;  cor             1    4[COMRAM] unsigned char 
  2592 ;; Auto vars:     Size  Location     Type
  2593 ;;  i               2   10[COMRAM] unsigned int 
  2594 ;;  caractere       1    9[COMRAM] unsigned char 
  2595 ;; Return value:  Size  Location     Type
  2596 ;;                  1    wreg      void 
  2597 ;; Registers used:
  2598 ;;		wreg, fsr2l, fsr2h, status,2, status,0, tblptrl, tblptrh, tblptru, prodl, prodh, cstack
  2599 ;; Tracked objects:
  2600 ;;		On entry : 0/0
  2601 ;;		On exit  : 0/0
  2602 ;;		Unchanged: 0/0
  2603 ;; Data sizes:     COMRAM   BANK0   BANK1   BANK2   BANK3   BANK4   BANK5   BANK6   BANK7
  2604 ;;      Params:         3       0       0       0       0       0       0       0       0
  2605 ;;      Locals:         3       0       0       0       0       0       0       0       0
  2606 ;;      Temps:          4       0       0       0       0       0       0       0       0
  2607 ;;      Totals:        10       0       0       0       0       0       0       0       0
  2608 ;;Total ram usage:       10 bytes
  2609 ;; Hardware stack levels used: 1
  2610 ;; Hardware stack levels required when called: 2
  2611 ;; This function calls:
  2612 ;;		_Envia_Dado
  2613 ;; This function is called by:
  2614 ;;		_main
  2615 ;;		_escreve_menu
  2616 ;; This function uses a non-reentrant model
  2617 ;;
  2618                           
  2619                           	psect	text6
  2620  0075DA                     __ptext6:
  2621                           	callstack 0
  2622  0075DA                     _escreve_string_cor:
  2623                           	callstack 28
  2624  0075DA                     
  2625                           ;nokia_5110.c: 114: void escreve_string_cor(char *string, unsigned char cor);nokia_5110.
      +                          c: 115: {;nokia_5110.c: 116:     char caractere;;nokia_5110.c: 117:     while(*string)
  2626  0075DA  EF3D  F03B         	goto	l1482
  2627  0075DE                     l1456:
  2628                           
  2629                           ;nokia_5110.c: 118:     {;nokia_5110.c: 119:         for(unsigned int i = 0; i < 5; i++)
  2630  0075DE  0E00               	movlw	0
  2631  0075E0  6E0C               	movwf	(escreve_string_cor@i+1)^0,c
  2632  0075E2  0E00               	movlw	0
  2633  0075E4  6E0B               	movwf	escreve_string_cor@i^0,c
  2634  0075E6                     l1462:
  2635                           
  2636                           ;nokia_5110.c: 120:         {;nokia_5110.c: 121:             caractere = tabela_ascii[*s
      +                          tring - 0x20][i];
  2637  0075E6  C003  FFF6         	movff	escreve_string_cor@string,tblptrl
  2638  0075EA  C004  FFF7         	movff	escreve_string_cor@string+1,tblptrh
  2639  0075EE                     	if	0	;tblptru may be non-zero
  2640  0075EE                     	endif
  2641  0075EE                     	if	0	;tblptru may be non-zero
  2642  0075EE                     	endif
  2643  0075EE  0008               	tblrd		*
  2644  0075F0  50F5               	movf	tablat,w,c
  2645  0075F2  0D05               	mullw	5
  2646  0075F4  0E60               	movlw	96
  2647  0075F6  6E06               	movwf	??_escreve_string_cor^0,c
  2648  0075F8  0EFF               	movlw	255
  2649  0075FA  6E07               	movwf	(??_escreve_string_cor+1)^0,c
  2650  0075FC  0E20               	movlw	low _tabela_ascii
  2651  0075FE  6E08               	movwf	(??_escreve_string_cor+2)^0,c
  2652  007600  0E06               	movlw	high _tabela_ascii
  2653  007602  6E09               	movwf	(??_escreve_string_cor+3)^0,c
  2654  007604  5006               	movf	??_escreve_string_cor^0,w,c
  2655  007606  2608               	addwf	(??_escreve_string_cor+2)^0,f,c
  2656  007608  5007               	movf	(??_escreve_string_cor+1)^0,w,c
  2657  00760A  2209               	addwfc	(??_escreve_string_cor+3)^0,f,c
  2658  00760C  50F3               	movf	243,w,c
  2659  00760E  2608               	addwf	(??_escreve_string_cor+2)^0,f,c
  2660  007610  50F4               	movf	244,w,c
  2661  007612  2209               	addwfc	(??_escreve_string_cor+3)^0,f,c
  2662  007614  500B               	movf	escreve_string_cor@i^0,w,c
  2663  007616  2408               	addwf	(??_escreve_string_cor+2)^0,w,c
  2664  007618  6ED9               	movwf	fsr2l,c
  2665  00761A  500C               	movf	(escreve_string_cor@i+1)^0,w,c
  2666  00761C  2009               	addwfc	(??_escreve_string_cor+3)^0,w,c
  2667  00761E  6EDA               	movwf	fsr2h,c
  2668  007620  50DF               	movf	indf2,w,c
  2669  007622  6E0A               	movwf	escreve_string_cor@caractere^0,c
  2670  007624                     
  2671                           ;nokia_5110.c: 122:             if(!cor) caractere = ~(caractere & 0xFF);
  2672  007624  5005               	movf	escreve_string_cor@cor^0,w,c
  2673  007626  A4D8               	btfss	status,2,c
  2674  007628  EF18  F03B         	goto	u351
  2675  00762C  EF1A  F03B         	goto	u350
  2676  007630                     u351:
  2677  007630  EF1B  F03B         	goto	l1468
  2678  007634                     u350:
  2679  007634  1E0A               	comf	escreve_string_cor@caractere^0,f,c
  2680  007636                     l1468:
  2681                           
  2682                           ;nokia_5110.c: 123:             Envia_Dado(caractere);
  2683  007636  500A               	movf	escreve_string_cor@caractere^0,w,c
  2684  007638  EC08  F039         	call	_Envia_Dado
  2685  00763C                     
  2686                           ;nokia_5110.c: 124:         }
  2687  00763C  4A0B               	infsnz	escreve_string_cor@i^0,f,c
  2688  00763E  2A0C               	incf	(escreve_string_cor@i+1)^0,f,c
  2689  007640  500C               	movf	(escreve_string_cor@i+1)^0,w,c
  2690  007642  E109               	bnz	u360
  2691  007644  0E05               	movlw	5
  2692  007646  5C0B               	subwf	escreve_string_cor@i^0,w,c
  2693  007648  A0D8               	btfss	status,0,c
  2694  00764A  EF29  F03B         	goto	u361
  2695  00764E  EF2B  F03B         	goto	u360
  2696  007652                     u361:
  2697  007652  EFF3  F03A         	goto	l1462
  2698  007656                     u360:
  2699  007656                     
  2700                           ;nokia_5110.c: 125:         string++;
  2701  007656  4A03               	infsnz	escreve_string_cor@string^0,f,c
  2702  007658  2A04               	incf	(escreve_string_cor@string+1)^0,f,c
  2703  00765A                     
  2704                           ;nokia_5110.c: 126:         if(!cor) Envia_Dado(0xFF);
  2705  00765A  5005               	movf	escreve_string_cor@cor^0,w,c
  2706  00765C  A4D8               	btfss	status,2,c
  2707  00765E  EF33  F03B         	goto	u371
  2708  007662  EF35  F03B         	goto	u370
  2709  007666                     u371:
  2710  007666  EF3A  F03B         	goto	l1480
  2711  00766A                     u370:
  2712  00766A  0EFF               	movlw	255
  2713  00766C  EC08  F039         	call	_Envia_Dado
  2714  007670  EF3D  F03B         	goto	l1482
  2715  007674                     l1480:
  2716  007674  0E00               	movlw	0
  2717  007676  EC08  F039         	call	_Envia_Dado
  2718  00767A                     l1482:
  2719                           
  2720                           ;nokia_5110.c: 117:     while(*string)
  2721  00767A  C003  FFF6         	movff	escreve_string_cor@string,tblptrl
  2722  00767E  C004  FFF7         	movff	escreve_string_cor@string+1,tblptrh
  2723  007682                     	if	0	;tblptru may be non-zero
  2724  007682                     	endif
  2725  007682                     	if	0	;tblptru may be non-zero
  2726  007682                     	endif
  2727  007682  0008               	tblrd		*
  2728  007684  50F5               	movf	tablat,w,c
  2729  007686  0900               	iorlw	0
  2730  007688  A4D8               	btfss	status,2,c
  2731  00768A  EF49  F03B         	goto	u381
  2732  00768E  EF4B  F03B         	goto	u380
  2733  007692                     u381:
  2734  007692  EFEF  F03A         	goto	l1456
  2735  007696                     u380:
  2736  007696  0012               	return		;funcret
  2737  007698                     __end_of_escreve_string_cor:
  2738                           	callstack 0
  2739                           
  2740 ;; *************** function _escreve_string *****************
  2741 ;; Defined at:
  2742 ;;		line 105 in file "nokia_5110.c"
  2743 ;; Parameters:    Size  Location     Type
  2744 ;;  string          2    8[COMRAM] PTR unsigned char 
  2745 ;;		 -> STR_16(9), STR_14(9), STR_12(9), STR_10(9), 
  2746 ;;		 -> STR_8(5), STR_7(6), STR_6(6), STR_5(6), 
  2747 ;;		 -> STR_2(12), STR_1(6), 
  2748 ;; Auto vars:     Size  Location     Type
  2749 ;;		None
  2750 ;; Return value:  Size  Location     Type
  2751 ;;                  1    wreg      void 
  2752 ;; Registers used:
  2753 ;;		wreg, fsr2l, fsr2h, status,2, status,0, tblptrl, tblptrh, tblptru, prodl, prodh, cstack
  2754 ;; Tracked objects:
  2755 ;;		On entry : 0/0
  2756 ;;		On exit  : 0/0
  2757 ;;		Unchanged: 0/0
  2758 ;; Data sizes:     COMRAM   BANK0   BANK1   BANK2   BANK3   BANK4   BANK5   BANK6   BANK7
  2759 ;;      Params:         2       0       0       0       0       0       0       0       0
  2760 ;;      Locals:         0       0       0       0       0       0       0       0       0
  2761 ;;      Temps:          0       0       0       0       0       0       0       0       0
  2762 ;;      Totals:         2       0       0       0       0       0       0       0       0
  2763 ;;Total ram usage:        2 bytes
  2764 ;; Hardware stack levels used: 1
  2765 ;; Hardware stack levels required when called: 3
  2766 ;; This function calls:
  2767 ;;		_escreve_caractere
  2768 ;; This function is called by:
  2769 ;;		_main
  2770 ;;		_escreve_menu
  2771 ;; This function uses a non-reentrant model
  2772 ;;
  2773                           
  2774                           	psect	text7
  2775  007336                     __ptext7:
  2776                           	callstack 0
  2777  007336                     _escreve_string:
  2778                           	callstack 27
  2779  007336                     
  2780                           ;nokia_5110.c: 105: void escreve_string(char *string);nokia_5110.c: 106: {;nokia_5110.c:
      +                           107:     while(*string)
  2781  007336  EFA7  F039         	goto	l1452
  2782  00733A                     l1448:
  2783                           
  2784                           ;nokia_5110.c: 108:     {;nokia_5110.c: 109:         escreve_caractere(*string++);
  2785  00733A  C009  FFF6         	movff	escreve_string@string,tblptrl
  2786  00733E  C00A  FFF7         	movff	escreve_string@string+1,tblptrh
  2787  007342                     	if	0	;tblptru may be non-zero
  2788  007342                     	endif
  2789  007342                     	if	0	;tblptru may be non-zero
  2790  007342                     	endif
  2791  007342  0008               	tblrd		*
  2792  007344  50F5               	movf	tablat,w,c
  2793  007346  EC42  F03A         	call	_escreve_caractere
  2794  00734A  4A09               	infsnz	escreve_string@string^0,f,c
  2795  00734C  2A0A               	incf	(escreve_string@string+1)^0,f,c
  2796  00734E                     l1452:
  2797                           
  2798                           ;nokia_5110.c: 107:     while(*string)
  2799  00734E  C009  FFF6         	movff	escreve_string@string,tblptrl
  2800  007352  C00A  FFF7         	movff	escreve_string@string+1,tblptrh
  2801  007356                     	if	0	;tblptru may be non-zero
  2802  007356                     	endif
  2803  007356                     	if	0	;tblptru may be non-zero
  2804  007356                     	endif
  2805  007356  0008               	tblrd		*
  2806  007358  50F5               	movf	tablat,w,c
  2807  00735A  0900               	iorlw	0
  2808  00735C  A4D8               	btfss	status,2,c
  2809  00735E  EFB3  F039         	goto	u341
  2810  007362  EFB5  F039         	goto	u340
  2811  007366                     u341:
  2812  007366  EF9D  F039         	goto	l1448
  2813  00736A                     u340:
  2814  00736A  0012               	return		;funcret
  2815  00736C                     __end_of_escreve_string:
  2816                           	callstack 0
  2817                           
  2818 ;; *************** function _escreve_caractere *****************
  2819 ;; Defined at:
  2820 ;;		line 95 in file "nokia_5110.c"
  2821 ;; Parameters:    Size  Location     Type
  2822 ;;  caractere       1    wreg     unsigned char 
  2823 ;; Auto vars:     Size  Location     Type
  2824 ;;  caractere       1    6[COMRAM] unsigned char 
  2825 ;;  i               1    7[COMRAM] unsigned char 
  2826 ;; Return value:  Size  Location     Type
  2827 ;;                  1    wreg      void 
  2828 ;; Registers used:
  2829 ;;		wreg, fsr2l, fsr2h, status,2, status,0, prodl, prodh, cstack
  2830 ;; Tracked objects:
  2831 ;;		On entry : 0/0
  2832 ;;		On exit  : 0/0
  2833 ;;		Unchanged: 0/0
  2834 ;; Data sizes:     COMRAM   BANK0   BANK1   BANK2   BANK3   BANK4   BANK5   BANK6   BANK7
  2835 ;;      Params:         0       0       0       0       0       0       0       0       0
  2836 ;;      Locals:         2       0       0       0       0       0       0       0       0
  2837 ;;      Temps:          4       0       0       0       0       0       0       0       0
  2838 ;;      Totals:         6       0       0       0       0       0       0       0       0
  2839 ;;Total ram usage:        6 bytes
  2840 ;; Hardware stack levels used: 1
  2841 ;; Hardware stack levels required when called: 2
  2842 ;; This function calls:
  2843 ;;		_Envia_Dado
  2844 ;; This function is called by:
  2845 ;;		_main
  2846 ;;		_testa_caracteres
  2847 ;;		_escreve_string
  2848 ;; This function uses a non-reentrant model
  2849 ;;
  2850                           
  2851                           	psect	text8
  2852  007484                     __ptext8:
  2853                           	callstack 0
  2854  007484                     _escreve_caractere:
  2855                           	callstack 27
  2856                           
  2857                           ;incstack = 0
  2858                           ;escreve_caractere@caractere stored from wreg
  2859  007484  6E07               	movwf	escreve_caractere@caractere^0,c
  2860  007486                     
  2861                           ;nokia_5110.c: 95: void escreve_caractere(unsigned char caractere);nokia_5110.c: 96: {;n
      +                          okia_5110.c: 97:     for(unsigned char i = 0; i < 5; i++)
  2862  007486  0E00               	movlw	0
  2863  007488  6E08               	movwf	escreve_caractere@i^0,c
  2864  00748A                     l966:
  2865                           
  2866                           ;nokia_5110.c: 98:     {;nokia_5110.c: 99:         Envia_Dado(tabela_ascii[caractere - 0
      +                          x20][i]);
  2867  00748A  5007               	movf	escreve_caractere@caractere^0,w,c
  2868  00748C  0D05               	mullw	5
  2869  00748E  0E60               	movlw	96
  2870  007490  6E03               	movwf	??_escreve_caractere^0,c
  2871  007492  0EFF               	movlw	255
  2872  007494  6E04               	movwf	(??_escreve_caractere+1)^0,c
  2873  007496  0E20               	movlw	low _tabela_ascii
  2874  007498  6E05               	movwf	(??_escreve_caractere+2)^0,c
  2875  00749A  0E06               	movlw	high _tabela_ascii
  2876  00749C  6E06               	movwf	(??_escreve_caractere+3)^0,c
  2877  00749E  5003               	movf	??_escreve_caractere^0,w,c
  2878  0074A0  2605               	addwf	(??_escreve_caractere+2)^0,f,c
  2879  0074A2  5004               	movf	(??_escreve_caractere+1)^0,w,c
  2880  0074A4  2206               	addwfc	(??_escreve_caractere+3)^0,f,c
  2881  0074A6  50F3               	movf	243,w,c
  2882  0074A8  2605               	addwf	(??_escreve_caractere+2)^0,f,c
  2883  0074AA  50F4               	movf	244,w,c
  2884  0074AC  2206               	addwfc	(??_escreve_caractere+3)^0,f,c
  2885  0074AE  5008               	movf	escreve_caractere@i^0,w,c
  2886  0074B0  2405               	addwf	(??_escreve_caractere+2)^0,w,c
  2887  0074B2  6ED9               	movwf	fsr2l,c
  2888  0074B4  0E00               	movlw	0
  2889  0074B6  2006               	addwfc	(??_escreve_caractere+3)^0,w,c
  2890  0074B8  6EDA               	movwf	fsr2h,c
  2891  0074BA  50DF               	movf	indf2,w,c
  2892  0074BC  EC08  F039         	call	_Envia_Dado
  2893  0074C0                     
  2894                           ;nokia_5110.c: 100:     }
  2895  0074C0  2A08               	incf	escreve_caractere@i^0,f,c
  2896  0074C2  0E04               	movlw	4
  2897  0074C4  6408               	cpfsgt	escreve_caractere@i^0,c
  2898  0074C6  EF67  F03A         	goto	u41
  2899  0074CA  EF69  F03A         	goto	u40
  2900  0074CE                     u41:
  2901  0074CE  EF45  F03A         	goto	l966
  2902  0074D2                     u40:
  2903  0074D2                     
  2904                           ;nokia_5110.c: 101:     Envia_Dado(0x00);
  2905  0074D2  0E00               	movlw	0
  2906  0074D4  EC08  F039         	call	_Envia_Dado
  2907  0074D8  0012               	return		;funcret
  2908  0074DA                     __end_of_escreve_caractere:
  2909                           	callstack 0
  2910                           
  2911 ;; *************** function _desenha_linha_horizontal *****************
  2912 ;; Defined at:
  2913 ;;		line 156 in file "nokia_5110.c"
  2914 ;; Parameters:    Size  Location     Type
  2915 ;;  posicao_x       1    wreg     unsigned char 
  2916 ;;  posicao_y       1    3[COMRAM] unsigned char 
  2917 ;; Auto vars:     Size  Location     Type
  2918 ;;  posicao_x       1    4[COMRAM] unsigned char 
  2919 ;;  linha           1    5[COMRAM] unsigned char 
  2920 ;; Return value:  Size  Location     Type
  2921 ;;                  1    wreg      void 
  2922 ;; Registers used:
  2923 ;;		wreg, status,2, status,0, cstack
  2924 ;; Tracked objects:
  2925 ;;		On entry : 0/0
  2926 ;;		On exit  : 0/0
  2927 ;;		Unchanged: 0/0
  2928 ;; Data sizes:     COMRAM   BANK0   BANK1   BANK2   BANK3   BANK4   BANK5   BANK6   BANK7
  2929 ;;      Params:         1       0       0       0       0       0       0       0       0
  2930 ;;      Locals:         2       0       0       0       0       0       0       0       0
  2931 ;;      Temps:          0       0       0       0       0       0       0       0       0
  2932 ;;      Totals:         3       0       0       0       0       0       0       0       0
  2933 ;;Total ram usage:        3 bytes
  2934 ;; Hardware stack levels used: 1
  2935 ;; Hardware stack levels required when called: 3
  2936 ;; This function calls:
  2937 ;;		_Envia_Dado
  2938 ;;		_coordenada_x
  2939 ;;		_coordenada_y
  2940 ;; This function is called by:
  2941 ;;		_main
  2942 ;;		_escreve_menu
  2943 ;; This function uses a non-reentrant model
  2944 ;;
  2945                           
  2946                           	psect	text9
  2947  0072A2                     __ptext9:
  2948                           	callstack 0
  2949  0072A2                     _desenha_linha_horizontal:
  2950                           	callstack 26
  2951                           
  2952                           ;incstack = 0
  2953                           ;desenha_linha_horizontal@posicao_x stored from wreg
  2954  0072A2  6E05               	movwf	desenha_linha_horizontal@posicao_x^0,c
  2955  0072A4                     
  2956                           ;nokia_5110.c: 156: void desenha_linha_horizontal(unsigned char posicao_x, unsigned char
      +                           posicao_y);nokia_5110.c: 157: {;nokia_5110.c: 158:     unsigned char linha = 84;
  2957  0072A4  0E54               	movlw	84
  2958  0072A6  6E06               	movwf	desenha_linha_horizontal@linha^0,c
  2959  0072A8                     
  2960                           ;nokia_5110.c: 159:     (coordenada_x(posicao_x), coordenada_y(posicao_y));
  2961  0072A8  5005               	movf	desenha_linha_horizontal@posicao_x^0,w,c
  2962  0072AA  EC1E  F039         	call	_coordenada_x
  2963  0072AE  5004               	movf	desenha_linha_horizontal@posicao_y^0,w,c
  2964  0072B0  EC2C  F039         	call	_coordenada_y
  2965                           
  2966                           ;nokia_5110.c: 160:     while(linha > 0)
  2967  0072B4  EF60  F039         	goto	l1494
  2968  0072B8                     l1490:
  2969                           
  2970                           ;nokia_5110.c: 161:     {;nokia_5110.c: 162:         Envia_Dado(0x10);
  2971  0072B8  0E10               	movlw	16
  2972  0072BA  EC08  F039         	call	_Envia_Dado
  2973  0072BE                     
  2974                           ;nokia_5110.c: 163:         linha--;
  2975  0072BE  0606               	decf	desenha_linha_horizontal@linha^0,f,c
  2976  0072C0                     l1494:
  2977                           
  2978                           ;nokia_5110.c: 160:     while(linha > 0)
  2979  0072C0  5006               	movf	desenha_linha_horizontal@linha^0,w,c
  2980  0072C2  A4D8               	btfss	status,2,c
  2981  0072C4  EF66  F039         	goto	u391
  2982  0072C8  EF68  F039         	goto	u390
  2983  0072CC                     u391:
  2984  0072CC  EF5C  F039         	goto	l1490
  2985  0072D0                     u390:
  2986  0072D0  0012               	return		;funcret
  2987  0072D2                     __end_of_desenha_linha_horizontal:
  2988                           	callstack 0
  2989                           
  2990 ;; *************** function _desenha_linha_vertical *****************
  2991 ;; Defined at:
  2992 ;;		line 167 in file "nokia_5110.c"
  2993 ;; Parameters:    Size  Location     Type
  2994 ;;  posicao_x       1    wreg     unsigned char 
  2995 ;;  posicao_y       1    3[COMRAM] unsigned char 
  2996 ;; Auto vars:     Size  Location     Type
  2997 ;;  posicao_x       1    4[COMRAM] unsigned char 
  2998 ;;  linha           1    5[COMRAM] unsigned char 
  2999 ;; Return value:  Size  Location     Type
  3000 ;;                  1    wreg      void 
  3001 ;; Registers used:
  3002 ;;		wreg, status,2, status,0, cstack
  3003 ;; Tracked objects:
  3004 ;;		On entry : 0/0
  3005 ;;		On exit  : 0/0
  3006 ;;		Unchanged: 0/0
  3007 ;; Data sizes:     COMRAM   BANK0   BANK1   BANK2   BANK3   BANK4   BANK5   BANK6   BANK7
  3008 ;;      Params:         1       0       0       0       0       0       0       0       0
  3009 ;;      Locals:         2       0       0       0       0       0       0       0       0
  3010 ;;      Temps:          0       0       0       0       0       0       0       0       0
  3011 ;;      Totals:         3       0       0       0       0       0       0       0       0
  3012 ;;Total ram usage:        3 bytes
  3013 ;; Hardware stack levels used: 1
  3014 ;; Hardware stack levels required when called: 3
  3015 ;; This function calls:
  3016 ;;		_Envia_Dado
  3017 ;;		_Envia_Instrucao
  3018 ;;		_coordenada_x
  3019 ;;		_coordenada_y
  3020 ;; This function is called by:
  3021 ;;		_main
  3022 ;; This function uses a non-reentrant model
  3023 ;;
  3024                           
  3025                           	psect	text10
  3026  00736C                     __ptext10:
  3027                           	callstack 0
  3028  00736C                     _desenha_linha_vertical:
  3029                           	callstack 27
  3030                           
  3031                           ;incstack = 0
  3032                           ;desenha_linha_vertical@posicao_x stored from wreg
  3033  00736C  6E05               	movwf	desenha_linha_vertical@posicao_x^0,c
  3034  00736E                     
  3035                           ;nokia_5110.c: 167: void desenha_linha_vertical(unsigned char posicao_x, unsigned char p
      +                          osicao_y);nokia_5110.c: 168: {;nokia_5110.c: 169:     unsigned char linha = 6;
  3036  00736E  0E06               	movlw	6
  3037  007370  6E06               	movwf	desenha_linha_vertical@linha^0,c
  3038  007372                     
  3039                           ;nokia_5110.c: 170:     (coordenada_x(posicao_x), coordenada_y(posicao_y));
  3040  007372  5005               	movf	desenha_linha_vertical@posicao_x^0,w,c
  3041  007374  EC1E  F039         	call	_coordenada_x
  3042  007378  5004               	movf	desenha_linha_vertical@posicao_y^0,w,c
  3043  00737A  EC2C  F039         	call	_coordenada_y
  3044  00737E                     
  3045                           ;nokia_5110.c: 171:     Envia_Instrucao(0x22);
  3046  00737E  0E22               	movlw	34
  3047  007380  EC00  F039         	call	_Envia_Instrucao
  3048                           
  3049                           ;nokia_5110.c: 172:     while(linha > 0)
  3050  007384  EFC8  F039         	goto	l1554
  3051  007388                     l1550:
  3052                           
  3053                           ;nokia_5110.c: 173:     {;nokia_5110.c: 174:         Envia_Dado(0xFF);
  3054  007388  0EFF               	movlw	255
  3055  00738A  EC08  F039         	call	_Envia_Dado
  3056  00738E                     
  3057                           ;nokia_5110.c: 175:         linha--;
  3058  00738E  0606               	decf	desenha_linha_vertical@linha^0,f,c
  3059  007390                     l1554:
  3060                           
  3061                           ;nokia_5110.c: 172:     while(linha > 0)
  3062  007390  5006               	movf	desenha_linha_vertical@linha^0,w,c
  3063  007392  A4D8               	btfss	status,2,c
  3064  007394  EFCE  F039         	goto	u411
  3065  007398  EFD0  F039         	goto	u410
  3066  00739C                     u411:
  3067  00739C  EFC4  F039         	goto	l1550
  3068  0073A0                     u410:
  3069  0073A0                     
  3070                           ;nokia_5110.c: 177:     Envia_Instrucao(0x20);
  3071  0073A0  0E20               	movlw	32
  3072  0073A2  EC00  F039         	call	_Envia_Instrucao
  3073  0073A6  0012               	return		;funcret
  3074  0073A8                     __end_of_desenha_linha_vertical:
  3075                           	callstack 0
  3076                           
  3077 ;; *************** function _coordenada_y *****************
  3078 ;; Defined at:
  3079 ;;		line 64 in file "nokia_5110.c"
  3080 ;; Parameters:    Size  Location     Type
  3081 ;;  y               1    wreg     unsigned char 
  3082 ;; Auto vars:     Size  Location     Type
  3083 ;;  y               1    2[COMRAM] unsigned char 
  3084 ;; Return value:  Size  Location     Type
  3085 ;;                  1    wreg      void 
  3086 ;; Registers used:
  3087 ;;		wreg, status,2, status,0, cstack
  3088 ;; Tracked objects:
  3089 ;;		On entry : 0/0
  3090 ;;		On exit  : 0/0
  3091 ;;		Unchanged: 0/0
  3092 ;; Data sizes:     COMRAM   BANK0   BANK1   BANK2   BANK3   BANK4   BANK5   BANK6   BANK7
  3093 ;;      Params:         0       0       0       0       0       0       0       0       0
  3094 ;;      Locals:         1       0       0       0       0       0       0       0       0
  3095 ;;      Temps:          0       0       0       0       0       0       0       0       0
  3096 ;;      Totals:         1       0       0       0       0       0       0       0       0
  3097 ;;Total ram usage:        1 bytes
  3098 ;; Hardware stack levels used: 1
  3099 ;; Hardware stack levels required when called: 2
  3100 ;; This function calls:
  3101 ;;		_Envia_Instrucao
  3102 ;; This function is called by:
  3103 ;;		_main
  3104 ;;		_escreve_menu
  3105 ;;		_testa_display
  3106 ;;		_testa_caracteres
  3107 ;;		_imprime_imagem
  3108 ;;		_desenha_linha_horizontal
  3109 ;;		_desenha_linha_vertical
  3110 ;; This function uses a non-reentrant model
  3111 ;;
  3112                           
  3113                           	psect	text11
  3114  007258                     __ptext11:
  3115                           	callstack 0
  3116  007258                     _coordenada_y:
  3117                           	callstack 27
  3118                           
  3119                           ;incstack = 0
  3120                           ;coordenada_y@y stored from wreg
  3121  007258  6E03               	movwf	coordenada_y@y^0,c
  3122  00725A                     
  3123                           ;nokia_5110.c: 64: void coordenada_y(unsigned char y);nokia_5110.c: 65: {;nokia_5110.c: 
      +                          66:     if(y < 6) Envia_Instrucao(0x40 | y);
  3124  00725A  0E06               	movlw	6
  3125  00725C  6003               	cpfslt	coordenada_y@y^0,c
  3126  00725E  EF33  F039         	goto	u31
  3127  007262  EF35  F039         	goto	u30
  3128  007266                     u31:
  3129  007266  EF39  F039         	goto	l133
  3130  00726A                     u30:
  3131  00726A  5003               	movf	coordenada_y@y^0,w,c
  3132  00726C  0940               	iorlw	64
  3133  00726E  EC00  F039         	call	_Envia_Instrucao
  3134  007272                     l133:
  3135  007272  0012               	return		;funcret
  3136  007274                     __end_of_coordenada_y:
  3137                           	callstack 0
  3138                           
  3139 ;; *************** function _coordenada_x *****************
  3140 ;; Defined at:
  3141 ;;		line 58 in file "nokia_5110.c"
  3142 ;; Parameters:    Size  Location     Type
  3143 ;;  x               1    wreg     unsigned char 
  3144 ;; Auto vars:     Size  Location     Type
  3145 ;;  x               1    2[COMRAM] unsigned char 
  3146 ;; Return value:  Size  Location     Type
  3147 ;;                  1    wreg      void 
  3148 ;; Registers used:
  3149 ;;		wreg, status,2, status,0, cstack
  3150 ;; Tracked objects:
  3151 ;;		On entry : 0/0
  3152 ;;		On exit  : 0/0
  3153 ;;		Unchanged: 0/0
  3154 ;; Data sizes:     COMRAM   BANK0   BANK1   BANK2   BANK3   BANK4   BANK5   BANK6   BANK7
  3155 ;;      Params:         0       0       0       0       0       0       0       0       0
  3156 ;;      Locals:         1       0       0       0       0       0       0       0       0
  3157 ;;      Temps:          0       0       0       0       0       0       0       0       0
  3158 ;;      Totals:         1       0       0       0       0       0       0       0       0
  3159 ;;Total ram usage:        1 bytes
  3160 ;; Hardware stack levels used: 1
  3161 ;; Hardware stack levels required when called: 2
  3162 ;; This function calls:
  3163 ;;		_Envia_Instrucao
  3164 ;; This function is called by:
  3165 ;;		_main
  3166 ;;		_escreve_menu
  3167 ;;		_testa_display
  3168 ;;		_testa_caracteres
  3169 ;;		_imprime_imagem
  3170 ;;		_desenha_linha_horizontal
  3171 ;;		_desenha_linha_vertical
  3172 ;; This function uses a non-reentrant model
  3173 ;;
  3174                           
  3175                           	psect	text12
  3176  00723C                     __ptext12:
  3177                           	callstack 0
  3178  00723C                     _coordenada_x:
  3179                           	callstack 27
  3180                           
  3181                           ;incstack = 0
  3182                           ;coordenada_x@x stored from wreg
  3183  00723C  6E03               	movwf	coordenada_x@x^0,c
  3184  00723E                     
  3185                           ;nokia_5110.c: 58: void coordenada_x(unsigned char x);nokia_5110.c: 59: {;nokia_5110.c: 
      +                          60:     if(x < 84) Envia_Instrucao(0x80 | x);
  3186  00723E  0E54               	movlw	84
  3187  007240  6003               	cpfslt	coordenada_x@x^0,c
  3188  007242  EF25  F039         	goto	u21
  3189  007246  EF27  F039         	goto	u20
  3190  00724A                     u21:
  3191  00724A  EF2B  F039         	goto	l129
  3192  00724E                     u20:
  3193  00724E  5003               	movf	coordenada_x@x^0,w,c
  3194  007250  0980               	iorlw	128
  3195  007252  EC00  F039         	call	_Envia_Instrucao
  3196  007256                     l129:
  3197  007256  0012               	return		;funcret
  3198  007258                     __end_of_coordenada_x:
  3199                           	callstack 0
  3200                           
  3201 ;; *************** function _Envia_Dado *****************
  3202 ;; Defined at:
  3203 ;;		line 27 in file "nokia_5110.c"
  3204 ;; Parameters:    Size  Location     Type
  3205 ;;  byte            1    wreg     unsigned char 
  3206 ;; Auto vars:     Size  Location     Type
  3207 ;;  byte            1    1[COMRAM] unsigned char 
  3208 ;; Return value:  Size  Location     Type
  3209 ;;                  1    wreg      void 
  3210 ;; Registers used:
  3211 ;;		wreg, status,2, cstack
  3212 ;; Tracked objects:
  3213 ;;		On entry : 0/0
  3214 ;;		On exit  : 0/0
  3215 ;;		Unchanged: 0/0
  3216 ;; Data sizes:     COMRAM   BANK0   BANK1   BANK2   BANK3   BANK4   BANK5   BANK6   BANK7
  3217 ;;      Params:         0       0       0       0       0       0       0       0       0
  3218 ;;      Locals:         1       0       0       0       0       0       0       0       0
  3219 ;;      Temps:          0       0       0       0       0       0       0       0       0
  3220 ;;      Totals:         1       0       0       0       0       0       0       0       0
  3221 ;;Total ram usage:        1 bytes
  3222 ;; Hardware stack levels used: 1
  3223 ;; Hardware stack levels required when called: 1
  3224 ;; This function calls:
  3225 ;;		_Escrita_SPI
  3226 ;; This function is called by:
  3227 ;;		_testa_display
  3228 ;;		_escreve_caractere
  3229 ;;		_escreve_string_cor
  3230 ;;		_limpa_display
  3231 ;;		_desenha_linha_horizontal
  3232 ;;		_desenha_linha_vertical
  3233 ;; This function uses a non-reentrant model
  3234 ;;
  3235                           
  3236                           	psect	text13
  3237  007210                     __ptext13:
  3238                           	callstack 0
  3239  007210                     _Envia_Dado:
  3240                           	callstack 28
  3241                           
  3242                           ;incstack = 0
  3243                           ;Envia_Dado@byte stored from wreg
  3244  007210  6E02               	movwf	Envia_Dado@byte^0,c
  3245  007212                     
  3246                           ;nokia_5110.c: 27: void Envia_Dado(unsigned char byte);nokia_5110.c: 28: {;nokia_5110.c:
      +                           29:     PORTEbits.RE1 = 0;
  3247  007212  9284               	bcf	132,1,c	;volatile
  3248                           
  3249                           ;nokia_5110.c: 30:     PORTEbits.RE2 = 1;
  3250  007214  8484               	bsf	132,2,c	;volatile
  3251  007216                     
  3252                           ;nokia_5110.c: 31:     Escrita_SPI(byte);
  3253  007216  5002               	movf	Envia_Dado@byte^0,w,c
  3254  007218  EC10  F039         	call	_Escrita_SPI
  3255  00721C                     
  3256                           ;nokia_5110.c: 32:     PORTEbits.RE1 = 1;
  3257  00721C  8284               	bsf	132,1,c	;volatile
  3258  00721E  0012               	return		;funcret
  3259  007220                     __end_of_Envia_Dado:
  3260                           	callstack 0
  3261                           
  3262 ;; *************** function _Inicializa_SPI *****************
  3263 ;; Defined at:
  3264 ;;		line 24 in file "spi.c"
  3265 ;; Parameters:    Size  Location     Type
  3266 ;;  modo            1    wreg     unsigned char 
  3267 ;;  modo_clock      1    0[COMRAM] unsigned char 
  3268 ;;  f_amostra       1    1[COMRAM] unsigned char 
  3269 ;; Auto vars:     Size  Location     Type
  3270 ;;  modo            1    4[COMRAM] unsigned char 
  3271 ;; Return value:  Size  Location     Type
  3272 ;;                  1    wreg      void 
  3273 ;; Registers used:
  3274 ;;		wreg, status,2, status,0
  3275 ;; Tracked objects:
  3276 ;;		On entry : 0/0
  3277 ;;		On exit  : 0/0
  3278 ;;		Unchanged: 0/0
  3279 ;; Data sizes:     COMRAM   BANK0   BANK1   BANK2   BANK3   BANK4   BANK5   BANK6   BANK7
  3280 ;;      Params:         2       0       0       0       0       0       0       0       0
  3281 ;;      Locals:         1       0       0       0       0       0       0       0       0
  3282 ;;      Temps:          2       0       0       0       0       0       0       0       0
  3283 ;;      Totals:         5       0       0       0       0       0       0       0       0
  3284 ;;Total ram usage:        5 bytes
  3285 ;; Hardware stack levels used: 1
  3286 ;; This function calls:
  3287 ;;		Nothing
  3288 ;; This function is called by:
  3289 ;;		_main
  3290 ;; This function uses a non-reentrant model
  3291 ;;
  3292                           
  3293                           	psect	text14
  3294  007530                     __ptext14:
  3295                           	callstack 0
  3296  007530                     _Inicializa_SPI:
  3297                           	callstack 30
  3298                           
  3299                           ;incstack = 0
  3300                           ;Inicializa_SPI@modo stored from wreg
  3301  007530  6E05               	movwf	Inicializa_SPI@modo^0,c
  3302  007532                     
  3303                           ;spi.c: 24: void Inicializa_SPI(unsigned char modo, unsigned char modo_clock, unsigned c
      +                          har f_amostra);spi.c: 25: {;spi.c: 27:     SSPCON1 = 0x00;
  3304  007532  0E00               	movlw	0
  3305  007534  6EC6               	movwf	198,c	;volatile
  3306  007536                     
  3307                           ;spi.c: 28:     SSPSTAT &= 0x3F;
  3308  007536  0E3F               	movlw	63
  3309  007538  16C7               	andwf	199,f,c	;volatile
  3310  00753A                     
  3311                           ;spi.c: 29:     SSPCON1 |= modo;
  3312  00753A  5005               	movf	Inicializa_SPI@modo^0,w,c	;volatile
  3313  00753C  12C6               	iorwf	198,f,c	;volatile
  3314  00753E                     
  3315                           ;spi.c: 30:     SSPSTAT |= f_amostra;
  3316  00753E  5002               	movf	Inicializa_SPI@f_amostra^0,w,c	;volatile
  3317  007540  12C7               	iorwf	199,f,c	;volatile
  3318                           
  3319                           ;spi.c: 31:     switch(modo_clock)
  3320  007542  EFAD  F03A         	goto	l1506
  3321  007546                     l217:
  3322                           
  3323                           ;spi.c: 34:             SSPSTATbits.CKE = 1;
  3324  007546  8CC7               	bsf	199,6,c	;volatile
  3325                           
  3326                           ;spi.c: 35:             break;
  3327  007548  EFD2  F03A         	goto	l1510
  3328  00754C                     l219:
  3329                           
  3330                           ;spi.c: 37:             SSPCON1bits.CKP = 1;
  3331  00754C  88C6               	bsf	198,4,c	;volatile
  3332                           
  3333                           ;spi.c: 38:             SSPSTATbits.CKE = 1;
  3334  00754E  8CC7               	bsf	199,6,c	;volatile
  3335                           
  3336                           ;spi.c: 39:             break;
  3337  007550  EFD2  F03A         	goto	l1510
  3338  007554                     l220:
  3339                           
  3340                           ;spi.c: 41:             SSPCON1bits.CKP = 1;
  3341  007554  88C6               	bsf	198,4,c	;volatile
  3342                           
  3343                           ;spi.c: 42:             break;
  3344  007556  EFD2  F03A         	goto	l1510
  3345  00755A                     l1506:
  3346  00755A  5001               	movf	Inicializa_SPI@modo_clock^0,w,c
  3347  00755C  6E03               	movwf	??_Inicializa_SPI^0,c
  3348  00755E  6A04               	clrf	(??_Inicializa_SPI+1)^0,c
  3349                           
  3350                           ; Switch on 2 bytes has been partitioned into a top level switch of size 1, and 1 sub-sw
      +                          itches
  3351                           ; Switch size 1, requested type "simple"
  3352                           ; Number of cases is 1, Range of values is 0 to 0
  3353                           ; switch strategies available:
  3354                           ; Name         Instructions Cycles
  3355                           ; simple_byte            4     3 (average)
  3356                           ;	Chosen strategy is simple_byte
  3357  007560  5004               	movf	(??_Inicializa_SPI+1)^0,w,c
  3358  007562  0A00               	xorlw	0	; case 0
  3359  007564  B4D8               	btfsc	status,2,c
  3360  007566  EFB7  F03A         	goto	l1804
  3361  00756A  EFD2  F03A         	goto	l1510
  3362  00756E                     l1804:
  3363                           
  3364                           ; Switch size 1, requested type "simple"
  3365                           ; Number of cases is 3, Range of values is 1 to 3
  3366                           ; switch strategies available:
  3367                           ; Name         Instructions Cycles
  3368                           ; simple_byte           10     6 (average)
  3369                           ;	Chosen strategy is simple_byte
  3370  00756E  5003               	movf	??_Inicializa_SPI^0,w,c
  3371  007570  0A01               	xorlw	1	; case 1
  3372  007572  B4D8               	btfsc	status,2,c
  3373  007574  EFA3  F03A         	goto	l217
  3374  007578  0A03               	xorlw	3	; case 2
  3375  00757A  B4D8               	btfsc	status,2,c
  3376  00757C  EFA6  F03A         	goto	l219
  3377  007580  0A01               	xorlw	1	; case 3
  3378  007582  B4D8               	btfsc	status,2,c
  3379  007584  EFAA  F03A         	goto	l220
  3380  007588  EFD2  F03A         	goto	l1510
  3381  00758C                     l223:
  3382                           
  3383                           ;spi.c: 50:             TRISBbits.TRISB1 = 1;
  3384  00758C  8293               	bsf	147,1,c	;volatile
  3385                           
  3386                           ;spi.c: 51:             TRISAbits.TRISA5 = 1;
  3387  00758E  8A92               	bsf	146,5,c	;volatile
  3388                           
  3389                           ;spi.c: 52:             SSPSTATbits.SMP = 0;
  3390  007590  9EC7               	bcf	199,7,c	;volatile
  3391                           
  3392                           ;spi.c: 53:             break;
  3393  007592  EFE7  F03A         	goto	l224
  3394  007596                     l225:
  3395                           
  3396                           ;spi.c: 55:             TRISBbits.TRISB1 = 1;
  3397  007596  8293               	bsf	147,1,c	;volatile
  3398                           
  3399                           ;spi.c: 56:             SSPSTATbits.SMP = 0;
  3400  007598  9EC7               	bcf	199,7,c	;volatile
  3401                           
  3402                           ;spi.c: 57:             break;
  3403  00759A  EFE7  F03A         	goto	l224
  3404  00759E                     l226:
  3405                           
  3406                           ;spi.c: 59:             TRISBbits.TRISB1 = 0;
  3407  00759E  9293               	bcf	147,1,c	;volatile
  3408                           
  3409                           ;spi.c: 60:             break;
  3410  0075A0  EFE7  F03A         	goto	l224
  3411  0075A4                     l1510:
  3412  0075A4  5005               	movf	Inicializa_SPI@modo^0,w,c
  3413  0075A6  6E03               	movwf	??_Inicializa_SPI^0,c
  3414  0075A8  6A04               	clrf	(??_Inicializa_SPI+1)^0,c
  3415                           
  3416                           ; Switch on 2 bytes has been partitioned into a top level switch of size 1, and 1 sub-sw
      +                          itches
  3417                           ; Switch size 1, requested type "simple"
  3418                           ; Number of cases is 1, Range of values is 0 to 0
  3419                           ; switch strategies available:
  3420                           ; Name         Instructions Cycles
  3421                           ; simple_byte            4     3 (average)
  3422                           ;	Chosen strategy is simple_byte
  3423  0075AA  5004               	movf	(??_Inicializa_SPI+1)^0,w,c
  3424  0075AC  0A00               	xorlw	0	; case 0
  3425  0075AE  B4D8               	btfsc	status,2,c
  3426  0075B0  EFDC  F03A         	goto	l1806
  3427  0075B4  EFCF  F03A         	goto	l226
  3428  0075B8                     l1806:
  3429                           
  3430                           ; Switch size 1, requested type "simple"
  3431                           ; Number of cases is 2, Range of values is 4 to 5
  3432                           ; switch strategies available:
  3433                           ; Name         Instructions Cycles
  3434                           ; simple_byte            7     4 (average)
  3435                           ;	Chosen strategy is simple_byte
  3436  0075B8  5003               	movf	??_Inicializa_SPI^0,w,c
  3437  0075BA  0A04               	xorlw	4	; case 4
  3438  0075BC  B4D8               	btfsc	status,2,c
  3439  0075BE  EFC6  F03A         	goto	l223
  3440  0075C2  0A01               	xorlw	1	; case 5
  3441  0075C4  B4D8               	btfsc	status,2,c
  3442  0075C6  EFCB  F03A         	goto	l225
  3443  0075CA  EFCF  F03A         	goto	l226
  3444  0075CE                     l224:
  3445                           
  3446                           ;spi.c: 62:     TRISBbits.TRISB0 = 1;
  3447  0075CE  8093               	bsf	147,0,c	;volatile
  3448                           
  3449                           ;spi.c: 63:     TRISCbits.TRISC7 = 0;
  3450  0075D0  9E94               	bcf	148,7,c	;volatile
  3451  0075D2                     
  3452                           ;spi.c: 64:     ADCON1 = 0x0F;
  3453  0075D2  0E0F               	movlw	15
  3454  0075D4  6EC1               	movwf	193,c	;volatile
  3455  0075D6                     
  3456                           ;spi.c: 65:     (SSPCON1 |= 0x20);
  3457  0075D6  8AC6               	bsf	198,5,c	;volatile
  3458  0075D8  0012               	return		;funcret
  3459  0075DA                     __end_of_Inicializa_SPI:
  3460                           	callstack 0
  3461                           
  3462 ;; *************** function _Inicializa_5110 *****************
  3463 ;; Defined at:
  3464 ;;		line 36 in file "nokia_5110.c"
  3465 ;; Parameters:    Size  Location     Type
  3466 ;;		None
  3467 ;; Auto vars:     Size  Location     Type
  3468 ;;		None
  3469 ;; Return value:  Size  Location     Type
  3470 ;;                  1    wreg      void 
  3471 ;; Registers used:
  3472 ;;		wreg, status,2, cstack
  3473 ;; Tracked objects:
  3474 ;;		On entry : 0/0
  3475 ;;		On exit  : 0/0
  3476 ;;		Unchanged: 0/0
  3477 ;; Data sizes:     COMRAM   BANK0   BANK1   BANK2   BANK3   BANK4   BANK5   BANK6   BANK7
  3478 ;;      Params:         0       0       0       0       0       0       0       0       0
  3479 ;;      Locals:         0       0       0       0       0       0       0       0       0
  3480 ;;      Temps:          2       0       0       0       0       0       0       0       0
  3481 ;;      Totals:         2       0       0       0       0       0       0       0       0
  3482 ;;Total ram usage:        2 bytes
  3483 ;; Hardware stack levels used: 1
  3484 ;; Hardware stack levels required when called: 2
  3485 ;; This function calls:
  3486 ;;		_Envia_Instrucao
  3487 ;; This function is called by:
  3488 ;;		_main
  3489 ;; This function uses a non-reentrant model
  3490 ;;
  3491                           
  3492                           	psect	text15
  3493  0073E8                     __ptext15:
  3494                           	callstack 0
  3495  0073E8                     _Inicializa_5110:
  3496                           	callstack 28
  3497  0073E8                     
  3498                           ;nokia_5110.c: 39:     TRISEbits.TRISE0 = 0;
  3499  0073E8  9096               	bcf	150,0,c	;volatile
  3500                           
  3501                           ;nokia_5110.c: 40:     TRISEbits.TRISE0 = 0;
  3502  0073EA  9096               	bcf	150,0,c	;volatile
  3503                           
  3504                           ;nokia_5110.c: 41:     TRISEbits.TRISE2 = 0;
  3505  0073EC  9496               	bcf	150,2,c	;volatile
  3506                           
  3507                           ;nokia_5110.c: 42:     TRISDbits.TRISD3 = 0;
  3508  0073EE  9695               	bcf	149,3,c	;volatile
  3509                           
  3510                           ;nokia_5110.c: 43:     PORTDbits.RD3 = 0;
  3511  0073F0  9683               	bcf	131,3,c	;volatile
  3512                           
  3513                           ;nokia_5110.c: 45:     PORTEbits.RE0 = 0;
  3514  0073F2  9084               	bcf	132,0,c	;volatile
  3515  0073F4                     
  3516                           ;nokia_5110.c: 46:     _delay(500000);
  3517  0073F4  0E03               	movlw	3
  3518  0073F6  6E04               	movwf	(??_Inicializa_5110+1)^0,c
  3519  0073F8  0E8A               	movlw	138
  3520  0073FA  6E03               	movwf	??_Inicializa_5110^0,c
  3521  0073FC  0E56               	movlw	86
  3522  0073FE                     u807:
  3523  0073FE  2EE8               	decfsz	wreg,f,c
  3524  007400  D7FE               	bra	u807
  3525  007402  2E03               	decfsz	??_Inicializa_5110^0,f,c
  3526  007404  D7FC               	bra	u807
  3527  007406  2E04               	decfsz	(??_Inicializa_5110+1)^0,f,c
  3528  007408  D7FA               	bra	u807
  3529  00740A                     
  3530                           ;nokia_5110.c: 47:     PORTEbits.RE0 = 1;
  3531  00740A  8084               	bsf	132,0,c	;volatile
  3532  00740C                     
  3533                           ;nokia_5110.c: 49:     Envia_Instrucao(0x21);
  3534  00740C  0E21               	movlw	33
  3535  00740E  EC00  F039         	call	_Envia_Instrucao
  3536  007412                     
  3537                           ;nokia_5110.c: 50:     Envia_Instrucao(0x07);
  3538  007412  0E07               	movlw	7
  3539  007414  EC00  F039         	call	_Envia_Instrucao
  3540  007418                     
  3541                           ;nokia_5110.c: 51:     Envia_Instrucao(0x13);
  3542  007418  0E13               	movlw	19
  3543  00741A  EC00  F039         	call	_Envia_Instrucao
  3544  00741E                     
  3545                           ;nokia_5110.c: 52:     Envia_Instrucao(0xC0);
  3546  00741E  0EC0               	movlw	192
  3547  007420  EC00  F039         	call	_Envia_Instrucao
  3548  007424                     
  3549                           ;nokia_5110.c: 53:     Envia_Instrucao(0x20);
  3550  007424  0E20               	movlw	32
  3551  007426  EC00  F039         	call	_Envia_Instrucao
  3552  00742A                     
  3553                           ;nokia_5110.c: 54:     Envia_Instrucao(0x0C);
  3554  00742A  0E0C               	movlw	12
  3555  00742C  EC00  F039         	call	_Envia_Instrucao
  3556  007430  0012               	return		;funcret
  3557  007432                     __end_of_Inicializa_5110:
  3558                           	callstack 0
  3559                           
  3560 ;; *************** function _Envia_Instrucao *****************
  3561 ;; Defined at:
  3562 ;;		line 18 in file "nokia_5110.c"
  3563 ;; Parameters:    Size  Location     Type
  3564 ;;  comando         1    wreg     unsigned char 
  3565 ;; Auto vars:     Size  Location     Type
  3566 ;;  comando         1    1[COMRAM] unsigned char 
  3567 ;; Return value:  Size  Location     Type
  3568 ;;                  1    wreg      void 
  3569 ;; Registers used:
  3570 ;;		wreg, status,2, cstack
  3571 ;; Tracked objects:
  3572 ;;		On entry : 0/0
  3573 ;;		On exit  : 0/0
  3574 ;;		Unchanged: 0/0
  3575 ;; Data sizes:     COMRAM   BANK0   BANK1   BANK2   BANK3   BANK4   BANK5   BANK6   BANK7
  3576 ;;      Params:         0       0       0       0       0       0       0       0       0
  3577 ;;      Locals:         1       0       0       0       0       0       0       0       0
  3578 ;;      Temps:          0       0       0       0       0       0       0       0       0
  3579 ;;      Totals:         1       0       0       0       0       0       0       0       0
  3580 ;;Total ram usage:        1 bytes
  3581 ;; Hardware stack levels used: 1
  3582 ;; Hardware stack levels required when called: 1
  3583 ;; This function calls:
  3584 ;;		_Escrita_SPI
  3585 ;; This function is called by:
  3586 ;;		_main
  3587 ;;		_Inicializa_5110
  3588 ;;		_coordenada_x
  3589 ;;		_coordenada_y
  3590 ;;		_desenha_linha_vertical
  3591 ;; This function uses a non-reentrant model
  3592 ;;
  3593                           
  3594                           	psect	text16
  3595  007200                     __ptext16:
  3596                           	callstack 0
  3597  007200                     _Envia_Instrucao:
  3598                           	callstack 27
  3599                           
  3600                           ;incstack = 0
  3601                           ;Envia_Instrucao@comando stored from wreg
  3602  007200  6E02               	movwf	Envia_Instrucao@comando^0,c
  3603  007202                     
  3604                           ;nokia_5110.c: 18: void Envia_Instrucao(unsigned char comando);nokia_5110.c: 19: {;nokia
      +                          _5110.c: 20:     PORTEbits.RE1 = 0;
  3605  007202  9284               	bcf	132,1,c	;volatile
  3606                           
  3607                           ;nokia_5110.c: 21:     PORTEbits.RE2 = 0;
  3608  007204  9484               	bcf	132,2,c	;volatile
  3609  007206                     
  3610                           ;nokia_5110.c: 22:     Escrita_SPI(comando);
  3611  007206  5002               	movf	Envia_Instrucao@comando^0,w,c
  3612  007208  EC10  F039         	call	_Escrita_SPI
  3613  00720C                     
  3614                           ;nokia_5110.c: 23:     PORTEbits.RE1 = 1;
  3615  00720C  8284               	bsf	132,1,c	;volatile
  3616  00720E  0012               	return		;funcret
  3617  007210                     __end_of_Envia_Instrucao:
  3618                           	callstack 0
  3619                           
  3620 ;; *************** function _Escrita_SPI *****************
  3621 ;; Defined at:
  3622 ;;		line 94 in file "spi.c"
  3623 ;; Parameters:    Size  Location     Type
  3624 ;;  dado            1    wreg     unsigned char 
  3625 ;; Auto vars:     Size  Location     Type
  3626 ;;  dado            1    0[COMRAM] unsigned char 
  3627 ;;  descarte        1    0        unsigned char 
  3628 ;; Return value:  Size  Location     Type
  3629 ;;                  1    wreg      char 
  3630 ;; Registers used:
  3631 ;;		wreg
  3632 ;; Tracked objects:
  3633 ;;		On entry : 0/0
  3634 ;;		On exit  : 0/0
  3635 ;;		Unchanged: 0/0
  3636 ;; Data sizes:     COMRAM   BANK0   BANK1   BANK2   BANK3   BANK4   BANK5   BANK6   BANK7
  3637 ;;      Params:         0       0       0       0       0       0       0       0       0
  3638 ;;      Locals:         1       0       0       0       0       0       0       0       0
  3639 ;;      Temps:          0       0       0       0       0       0       0       0       0
  3640 ;;      Totals:         1       0       0       0       0       0       0       0       0
  3641 ;;Total ram usage:        1 bytes
  3642 ;; Hardware stack levels used: 1
  3643 ;; This function calls:
  3644 ;;		Nothing
  3645 ;; This function is called by:
  3646 ;;		_Envia_Instrucao
  3647 ;;		_Envia_Dado
  3648 ;;		_imprime_imagem
  3649 ;; This function uses a non-reentrant model
  3650 ;;
  3651                           
  3652                           	psect	text17
  3653  007220                     __ptext17:
  3654                           	callstack 0
  3655  007220                     _Escrita_SPI:
  3656                           	callstack 27
  3657                           
  3658                           ;incstack = 0
  3659                           ;Escrita_SPI@dado stored from wreg
  3660  007220  6E01               	movwf	Escrita_SPI@dado^0,c
  3661  007222                     
  3662                           ;spi.c: 94: signed char Escrita_SPI(unsigned char dado);spi.c: 95: {;spi.c: 96:     unsi
      +                          gned char descarte;;spi.c: 97:     PIR1bits.SSPIF = 0;
  3663  007222  969E               	bcf	158,3,c	;volatile
  3664  007224  50C9               	movf	201,w,c	;volatile
  3665  007226                     
  3666                           ;spi.c: 99:     SSPBUF = dado;
  3667  007226  C001  FFC9         	movff	Escrita_SPI@dado,4041	;volatile
  3668  00722A                     l242:
  3669  00722A  A69E               	btfss	158,3,c	;volatile
  3670  00722C  EF1A  F039         	goto	u11
  3671  007230  EF1C  F039         	goto	u10
  3672  007234                     u11:
  3673  007234  EF15  F039         	goto	l242
  3674  007238                     u10:
  3675  007238                     
  3676                           ;spi.c: 102:     if(SSPCON1bits.WCOL == 1) return (-1);
  3677  007238  50C6               	movf	198,w,c	;volatile
  3678  00723A  0012               	return		;funcret
  3679  00723C                     __end_of_Escrita_SPI:
  3680                           	callstack 0
  3681                           
  3682 ;; *************** function _Inic_Regs *****************
  3683 ;; Defined at:
  3684 ;;		line 195 in file "teste_nokia_5110.c"
  3685 ;; Parameters:    Size  Location     Type
  3686 ;;		None
  3687 ;; Auto vars:     Size  Location     Type
  3688 ;;		None
  3689 ;; Return value:  Size  Location     Type
  3690 ;;                  1    wreg      void 
  3691 ;; Registers used:
  3692 ;;		wreg, status,2
  3693 ;; Tracked objects:
  3694 ;;		On entry : 0/0
  3695 ;;		On exit  : 0/0
  3696 ;;		Unchanged: 0/0
  3697 ;; Data sizes:     COMRAM   BANK0   BANK1   BANK2   BANK3   BANK4   BANK5   BANK6   BANK7
  3698 ;;      Params:         0       0       0       0       0       0       0       0       0
  3699 ;;      Locals:         0       0       0       0       0       0       0       0       0
  3700 ;;      Temps:          0       0       0       0       0       0       0       0       0
  3701 ;;      Totals:         0       0       0       0       0       0       0       0       0
  3702 ;;Total ram usage:        0 bytes
  3703 ;; Hardware stack levels used: 1
  3704 ;; This function calls:
  3705 ;;		Nothing
  3706 ;; This function is called by:
  3707 ;;		_main
  3708 ;; This function uses a non-reentrant model
  3709 ;;
  3710                           
  3711                           	psect	text18
  3712  007274                     __ptext18:
  3713                           	callstack 0
  3714  007274                     _Inic_Regs:
  3715                           	callstack 30
  3716  007274                     
  3717                           ;teste_nokia_5110.c: 197:     TRISA = 0x00;
  3718  007274  0E00               	movlw	0
  3719  007276  6E92               	movwf	146,c	;volatile
  3720                           
  3721                           ;teste_nokia_5110.c: 198:     TRISB = 0xE0;
  3722  007278  0EE0               	movlw	224
  3723  00727A  6E93               	movwf	147,c	;volatile
  3724                           
  3725                           ;teste_nokia_5110.c: 199:     TRISC = 0x00;
  3726  00727C  0E00               	movlw	0
  3727  00727E  6E94               	movwf	148,c	;volatile
  3728                           
  3729                           ;teste_nokia_5110.c: 200:     TRISD = 0x00;
  3730  007280  0E00               	movlw	0
  3731  007282  6E95               	movwf	149,c	;volatile
  3732                           
  3733                           ;teste_nokia_5110.c: 201:     TRISE = 0x00;
  3734  007284  0E00               	movlw	0
  3735  007286  6E96               	movwf	150,c	;volatile
  3736                           
  3737                           ;teste_nokia_5110.c: 202:     ADCON1 = 0x0F;
  3738  007288  0E0F               	movlw	15
  3739  00728A  6EC1               	movwf	193,c	;volatile
  3740                           
  3741                           ;teste_nokia_5110.c: 203:     PORTA = 0;
  3742  00728C  0E00               	movlw	0
  3743  00728E  6E80               	movwf	128,c	;volatile
  3744                           
  3745                           ;teste_nokia_5110.c: 204:     PORTB = 0;
  3746  007290  0E00               	movlw	0
  3747  007292  6E81               	movwf	129,c	;volatile
  3748                           
  3749                           ;teste_nokia_5110.c: 205:     PORTC = 0;
  3750  007294  0E00               	movlw	0
  3751  007296  6E82               	movwf	130,c	;volatile
  3752                           
  3753                           ;teste_nokia_5110.c: 206:     PORTD = 0;
  3754  007298  0E00               	movlw	0
  3755  00729A  6E83               	movwf	131,c	;volatile
  3756                           
  3757                           ;teste_nokia_5110.c: 207:     PORTE = 0;
  3758  00729C  0E00               	movlw	0
  3759  00729E  6E84               	movwf	132,c	;volatile
  3760  0072A0  0012               	return		;funcret
  3761  0072A2                     __end_of_Inic_Regs:
  3762                           	callstack 0
  3763                           
  3764                           	psect	rparam
  3765  0000                     
  3766                           	psect	idloc
  3767                           
  3768                           ;Config register IDLOC0 @ 0x200000
  3769                           ;	unspecified, using default values
  3770  200000                     	org	2097152
  3771  200000  FF                 	db	255
  3772                           
  3773                           ;Config register IDLOC1 @ 0x200001
  3774                           ;	unspecified, using default values
  3775  200001                     	org	2097153
  3776  200001  FF                 	db	255
  3777                           
  3778                           ;Config register IDLOC2 @ 0x200002
  3779                           ;	unspecified, using default values
  3780  200002                     	org	2097154
  3781  200002  FF                 	db	255
  3782                           
  3783                           ;Config register IDLOC3 @ 0x200003
  3784                           ;	unspecified, using default values
  3785  200003                     	org	2097155
  3786  200003  FF                 	db	255
  3787                           
  3788                           ;Config register IDLOC4 @ 0x200004
  3789                           ;	unspecified, using default values
  3790  200004                     	org	2097156
  3791  200004  FF                 	db	255
  3792                           
  3793                           ;Config register IDLOC5 @ 0x200005
  3794                           ;	unspecified, using default values
  3795  200005                     	org	2097157
  3796  200005  FF                 	db	255
  3797                           
  3798                           ;Config register IDLOC6 @ 0x200006
  3799                           ;	unspecified, using default values
  3800  200006                     	org	2097158
  3801  200006  FF                 	db	255
  3802                           
  3803                           ;Config register IDLOC7 @ 0x200007
  3804                           ;	unspecified, using default values
  3805  200007                     	org	2097159
  3806  200007  FF                 	db	255
  3807                           
  3808                           	psect	config
  3809                           
  3810                           ;Config register CONFIG1L @ 0x300000
  3811                           ;	PLL Prescaler Selection bits
  3812                           ;	PLLDIV = 1, No prescale (4 MHz oscillator input drives PLL directly)
  3813                           ;	System Clock Postscaler Selection bits
  3814                           ;	CPUDIV = OSC1_PLL2, [Primary Oscillator Src: /1][96 MHz PLL Src: /2]
  3815                           ;	USB Clock Selection bit (used in Full-Speed USB mode only; UCFG:FSEN = 1)
  3816                           ;	USBDIV = 1, USB clock source comes directly from the primary oscillator block with no 
      +                          postscale
  3817  300000                     	org	3145728
  3818  300000  00                 	db	0
  3819                           
  3820                           ;Config register CONFIG1H @ 0x300001
  3821                           ;	Oscillator Selection bits
  3822                           ;	FOSC = HS, HS oscillator (HS)
  3823                           ;	Fail-Safe Clock Monitor Enable bit
  3824                           ;	FCMEN = OFF, Fail-Safe Clock Monitor disabled
  3825                           ;	Internal/External Oscillator Switchover bit
  3826                           ;	IESO = OFF, Oscillator Switchover mode disabled
  3827  300001                     	org	3145729
  3828  300001  0C                 	db	12
  3829                           
  3830                           ;Config register CONFIG2L @ 0x300002
  3831                           ;	Power-up Timer Enable bit
  3832                           ;	PWRT = ON, PWRT enabled
  3833                           ;	Brown-out Reset Enable bits
  3834                           ;	BOR = ON, Brown-out Reset enabled in hardware only (SBOREN is disabled)
  3835                           ;	Brown-out Reset Voltage bits
  3836                           ;	BORV = 1, Setting 2 4.33V
  3837                           ;	USB Voltage Regulator Enable bit
  3838                           ;	VREGEN = OFF, USB voltage regulator disabled
  3839  300002                     	org	3145730
  3840  300002  0E                 	db	14
  3841                           
  3842                           ;Config register CONFIG2H @ 0x300003
  3843                           ;	Watchdog Timer Enable bit
  3844                           ;	WDT = OFF, WDT disabled (control is placed on the SWDTEN bit)
  3845                           ;	Watchdog Timer Postscale Select bits
  3846                           ;	WDTPS = 1, 1:1
  3847  300003                     	org	3145731
  3848  300003  00                 	db	0
  3849                           
  3850                           ; Padding undefined space
  3851  300004                     	org	3145732
  3852  300004  FF                 	db	255
  3853                           
  3854                           ;Config register CONFIG3H @ 0x300005
  3855                           ;	CCP2 MUX bit
  3856                           ;	CCP2MX = ON, CCP2 input/output is multiplexed with RC1
  3857                           ;	PORTB A/D Enable bit
  3858                           ;	PBADEN = OFF, PORTB<4:0> pins are configured as digital I/O on Reset
  3859                           ;	Low-Power Timer 1 Oscillator Enable bit
  3860                           ;	LPT1OSC = OFF, Timer1 configured for higher power operation
  3861                           ;	MCLR Pin Enable bit
  3862                           ;	MCLRE = ON, MCLR pin enabled; RE3 input pin disabled
  3863  300005                     	org	3145733
  3864  300005  81                 	db	129
  3865                           
  3866                           ;Config register CONFIG4L @ 0x300006
  3867                           ;	Stack Full/Underflow Reset Enable bit
  3868                           ;	STVREN = ON, Stack full/underflow will cause Reset
  3869                           ;	Single-Supply ICSP Enable bit
  3870                           ;	LVP = OFF, Single-Supply ICSP disabled
  3871                           ;	Dedicated In-Circuit Debug/Programming Port (ICPORT) Enable bit
  3872                           ;	ICPRT = OFF, ICPORT disabled
  3873                           ;	Extended Instruction Set Enable bit
  3874                           ;	XINST = OFF, Instruction set extension and Indexed Addressing mode disabled (Legacy mo
      +                          de)
  3875                           ;	Background Debugger Enable bit
  3876                           ;	DEBUG = 0x1, unprogrammed default
  3877  300006                     	org	3145734
  3878  300006  81                 	db	129
  3879                           
  3880                           ; Padding undefined space
  3881  300007                     	org	3145735
  3882  300007  FF                 	db	255
  3883                           
  3884                           ;Config register CONFIG5L @ 0x300008
  3885                           ;	Code Protection bit
  3886                           ;	CP0 = OFF, Block 0 (000800-001FFFh) is not code-protected
  3887                           ;	Code Protection bit
  3888                           ;	CP1 = OFF, Block 1 (002000-003FFFh) is not code-protected
  3889                           ;	Code Protection bit
  3890                           ;	CP2 = OFF, Block 2 (004000-005FFFh) is not code-protected
  3891                           ;	Code Protection bit
  3892                           ;	CP3 = OFF, Block 3 (006000-007FFFh) is not code-protected
  3893  300008                     	org	3145736
  3894  300008  0F                 	db	15
  3895                           
  3896                           ;Config register CONFIG5H @ 0x300009
  3897                           ;	Boot Block Code Protection bit
  3898                           ;	CPB = OFF, Boot block (000000-0007FFh) is not code-protected
  3899                           ;	Data EEPROM Code Protection bit
  3900                           ;	CPD = OFF, Data EEPROM is not code-protected
  3901  300009                     	org	3145737
  3902  300009  C0                 	db	192
  3903                           
  3904                           ;Config register CONFIG6L @ 0x30000A
  3905                           ;	Write Protection bit
  3906                           ;	WRT0 = OFF, Block 0 (000800-001FFFh) is not write-protected
  3907                           ;	Write Protection bit
  3908                           ;	WRT1 = OFF, Block 1 (002000-003FFFh) is not write-protected
  3909                           ;	Write Protection bit
  3910                           ;	WRT2 = OFF, Block 2 (004000-005FFFh) is not write-protected
  3911                           ;	Write Protection bit
  3912                           ;	WRT3 = OFF, Block 3 (006000-007FFFh) is not write-protected
  3913  30000A                     	org	3145738
  3914  30000A  0F                 	db	15
  3915                           
  3916                           ;Config register CONFIG6H @ 0x30000B
  3917                           ;	Configuration Register Write Protection bit
  3918                           ;	WRTC = OFF, Configuration registers (300000-3000FFh) are not write-protected
  3919                           ;	Boot Block Write Protection bit
  3920                           ;	WRTB = OFF, Boot block (000000-0007FFh) is not write-protected
  3921                           ;	Data EEPROM Write Protection bit
  3922                           ;	WRTD = OFF, Data EEPROM is not write-protected
  3923  30000B                     	org	3145739
  3924  30000B  E0                 	db	224
  3925                           
  3926                           ;Config register CONFIG7L @ 0x30000C
  3927                           ;	Table Read Protection bit
  3928                           ;	EBTR0 = OFF, Block 0 (000800-001FFFh) is not protected from table reads executed in ot
      +                          her blocks
  3929                           ;	Table Read Protection bit
  3930                           ;	EBTR1 = OFF, Block 1 (002000-003FFFh) is not protected from table reads executed in ot
      +                          her blocks
  3931                           ;	Table Read Protection bit
  3932                           ;	EBTR2 = OFF, Block 2 (004000-005FFFh) is not protected from table reads executed in ot
      +                          her blocks
  3933                           ;	Table Read Protection bit
  3934                           ;	EBTR3 = OFF, Block 3 (006000-007FFFh) is not protected from table reads executed in ot
      +                          her blocks
  3935  30000C                     	org	3145740
  3936  30000C  0F                 	db	15
  3937                           
  3938                           ;Config register CONFIG7H @ 0x30000D
  3939                           ;	Boot Block Table Read Protection bit
  3940                           ;	EBTRB = OFF, Boot block (000000-0007FFh) is not protected from table reads executed in
      +                           other blocks
  3941  30000D                     	org	3145741
  3942  30000D  40                 	db	64
  3943                           tosu	equ	0xFFF
  3944                           tosh	equ	0xFFE
  3945                           tosl	equ	0xFFD
  3946                           stkptr	equ	0xFFC
  3947                           pclatu	equ	0xFFB
  3948                           pclath	equ	0xFFA
  3949                           pcl	equ	0xFF9
  3950                           tblptru	equ	0xFF8
  3951                           tblptrh	equ	0xFF7
  3952                           tblptrl	equ	0xFF6
  3953                           tablat	equ	0xFF5
  3954                           prodh	equ	0xFF4
  3955                           prodl	equ	0xFF3
  3956                           indf0	equ	0xFEF
  3957                           postinc0	equ	0xFEE
  3958                           postdec0	equ	0xFED
  3959                           preinc0	equ	0xFEC
  3960                           plusw0	equ	0xFEB
  3961                           fsr0h	equ	0xFEA
  3962                           fsr0l	equ	0xFE9
  3963                           wreg	equ	0xFE8
  3964                           indf1	equ	0xFE7
  3965                           postinc1	equ	0xFE6
  3966                           postdec1	equ	0xFE5
  3967                           preinc1	equ	0xFE4
  3968                           plusw1	equ	0xFE3
  3969                           fsr1h	equ	0xFE2
  3970                           fsr1l	equ	0xFE1
  3971                           bsr	equ	0xFE0
  3972                           indf2	equ	0xFDF
  3973                           postinc2	equ	0xFDE
  3974                           postdec2	equ	0xFDD
  3975                           preinc2	equ	0xFDC
  3976                           plusw2	equ	0xFDB
  3977                           fsr2h	equ	0xFDA
  3978                           fsr2l	equ	0xFD9
  3979                           status	equ	0xFD8

Data Sizes:
    Strings     65
    Constant    504
    Data        480
    BSS         1
    Persistent  0
    Stack       0

Auto Spaces:
    Space          Size  Autos    Used
    COMRAM           95     14      15
    BANK0           160      0       0
    BANK1           256      0       0
    BANK2           256      0       0
    BANK3           256      0       0
    BANK4           256      0       0
    BANK5           256      0       0
    BANK6           256      0       0
    BANK7           256      0       0

Pointer List with Targets:

    imprime_imagem@imagem	PTR const unsigned char  size(2) Largest target is 504
		 -> imagem(CODE[504]), 

    escreve_string_cor@string	PTR unsigned char  size(2) Largest target is 12
		 -> STR_15(CODE[9]), STR_13(CODE[9]), STR_11(CODE[9]), STR_9(CODE[9]), 
		 -> STR_4(CODE[12]), STR_3(CODE[6]), 

    escreve_string@string	PTR unsigned char  size(2) Largest target is 12
		 -> STR_16(CODE[9]), STR_14(CODE[9]), STR_12(CODE[9]), STR_10(CODE[9]), 
		 -> STR_8(CODE[5]), STR_7(CODE[6]), STR_6(CODE[6]), STR_5(CODE[6]), 
		 -> STR_2(CODE[12]), STR_1(CODE[6]), 


Critical Paths under _main in COMRAM

    _main->_escreve_string_cor
    _testa_display->_coordenada_x
    _testa_display->_coordenada_y
    _testa_caracteres->_escreve_caractere
    _limpa_display->_Envia_Dado
    _imprime_imagem->_coordenada_x
    _imprime_imagem->_coordenada_y
    _escreve_menu->_escreve_string_cor
    _escreve_string_cor->_Envia_Dado
    _escreve_string->_escreve_caractere
    _escreve_caractere->_Envia_Dado
    _desenha_linha_horizontal->_coordenada_x
    _desenha_linha_horizontal->_coordenada_y
    _desenha_linha_vertical->_coordenada_x
    _desenha_linha_vertical->_coordenada_y
    _coordenada_y->_Envia_Instrucao
    _coordenada_x->_Envia_Instrucao
    _Envia_Dado->_Escrita_SPI
    _Inicializa_5110->_Envia_Instrucao
    _Envia_Instrucao->_Escrita_SPI

Critical Paths under _main in BANK0

    None.

Critical Paths under _main in BANK1

    None.

Critical Paths under _main in BANK2

    None.

Critical Paths under _main in BANK3

    None.

Critical Paths under _main in BANK4

    None.

Critical Paths under _main in BANK5

    None.

Critical Paths under _main in BANK6

    None.

Critical Paths under _main in BANK7

    None.

Call Graph Tables:

 ---------------------------------------------------------------------------------
 (Depth) Function   	        Calls       Base Space   Used Autos Params    Refs
 ---------------------------------------------------------------------------------
 (0) _main                                                 2     2      0    6660
                                             12 COMRAM     2     2      0
                    _Envia_Instrucao
                          _Inic_Regs
                    _Inicializa_5110
                     _Inicializa_SPI
                       _coordenada_x
                       _coordenada_y
           _desenha_linha_horizontal
             _desenha_linha_vertical
                  _escreve_caractere
                       _escreve_menu
                     _escreve_string
                 _escreve_string_cor
                     _imprime_imagem
                      _limpa_display
                   _testa_caracteres
                      _testa_display
 ---------------------------------------------------------------------------------
 (1) _testa_display                                        2     2      0     210
                                              3 COMRAM     2     2      0
                         _Envia_Dado
                       _coordenada_x
                       _coordenada_y
 ---------------------------------------------------------------------------------
 (1) _testa_caracteres                                     1     1      0     285
                                              8 COMRAM     1     1      0
                       _coordenada_x
                       _coordenada_y
                  _escreve_caractere
 ---------------------------------------------------------------------------------
 (1) _limpa_display                                        2     2      0      90
                                              2 COMRAM     2     2      0
                         _Envia_Dado
 ---------------------------------------------------------------------------------
 (1) _imprime_imagem                                       6     4      2     301
                                              3 COMRAM     6     4      2
                        _Escrita_SPI
                       _coordenada_x
                       _coordenada_y
 ---------------------------------------------------------------------------------
 (1) _escreve_menu                                         0     0      0    2530
                       _coordenada_x
                       _coordenada_y
           _desenha_linha_horizontal
                     _escreve_string
                 _escreve_string_cor
 ---------------------------------------------------------------------------------
 (1) _escreve_string_cor                                  10     7      3    1145
                                              2 COMRAM    10     7      3
                         _Envia_Dado
 ---------------------------------------------------------------------------------
 (1) _escreve_string                                       2     0      2     895
                                              8 COMRAM     2     0      2
                  _escreve_caractere
 ---------------------------------------------------------------------------------
 (2) _escreve_caractere                                    6     6      0      90
                                              2 COMRAM     6     6      0
                         _Envia_Dado
 ---------------------------------------------------------------------------------
 (2) _desenha_linha_horizontal                             3     2      1     370
                                              3 COMRAM     3     2      1
                         _Envia_Dado
                       _coordenada_x
                       _coordenada_y
 ---------------------------------------------------------------------------------
 (1) _desenha_linha_vertical                               3     2      1     324
                                              3 COMRAM     3     2      1
                         _Envia_Dado
                    _Envia_Instrucao
                       _coordenada_x
                       _coordenada_y
 ---------------------------------------------------------------------------------
 (2) _coordenada_y                                         1     1      0      60
                                              2 COMRAM     1     1      0
                    _Envia_Instrucao
 ---------------------------------------------------------------------------------
 (2) _coordenada_x                                         1     1      0      60
                                              2 COMRAM     1     1      0
                    _Envia_Instrucao
 ---------------------------------------------------------------------------------
 (2) _Envia_Dado                                           1     1      0      30
                                              1 COMRAM     1     1      0
                        _Escrita_SPI
 ---------------------------------------------------------------------------------
 (1) _Inicializa_SPI                                       5     3      2     240
                                              0 COMRAM     5     3      2
 ---------------------------------------------------------------------------------
 (1) _Inicializa_5110                                      2     2      0      30
                                              2 COMRAM     2     2      0
                    _Envia_Instrucao
 ---------------------------------------------------------------------------------
 (3) _Envia_Instrucao                                      1     1      0      30
                                              1 COMRAM     1     1      0
                        _Escrita_SPI
 ---------------------------------------------------------------------------------
 (4) _Escrita_SPI                                          2     2      0      15
                                              0 COMRAM     1     1      0
 ---------------------------------------------------------------------------------
 (1) _Inic_Regs                                            0     0      0       0
 ---------------------------------------------------------------------------------
 Estimated maximum stack depth 4
 ---------------------------------------------------------------------------------

 Call Graph Graphs:

 _main (ROOT)
   _Envia_Instrucao
     _Escrita_SPI
   _Inic_Regs
   _Inicializa_5110
     _Envia_Instrucao
   _Inicializa_SPI
   _coordenada_x
     _Envia_Instrucao
   _coordenada_y
     _Envia_Instrucao
   _desenha_linha_horizontal
     _Envia_Dado
       _Escrita_SPI
     _coordenada_x
     _coordenada_y
   _desenha_linha_vertical
     _Envia_Dado
     _Envia_Instrucao
     _coordenada_x
     _coordenada_y
   _escreve_caractere
     _Envia_Dado
   _escreve_menu
     _coordenada_x
     _coordenada_y
     _desenha_linha_horizontal
     _escreve_string
       _escreve_caractere
     _escreve_string_cor
       _Envia_Dado
   _escreve_string
   _escreve_string_cor
   _imprime_imagem
     _Escrita_SPI
     _coordenada_x
     _coordenada_y
   _limpa_display
     _Envia_Dado
   _testa_caracteres
     _coordenada_x
     _coordenada_y
     _escreve_caractere
   _testa_display
     _Envia_Dado
     _coordenada_x
     _coordenada_y

 Address spaces:
Name               Size   Autos  Total    Cost      Usage
BIGRAM             7FF      0     1E0      21       23.4%
EEDATA             100      0       0       0        0.0%
BITBANK7           100      0       0      18        0.0%
BANK7              100      0       0      19        0.0%
BITBANK6           100      0       0      16        0.0%
BANK6              100      0       0      17        0.0%
BITBANK5           100      0       0      14        0.0%
BANK5              100      0       0      15        0.0%
BITBANK4           100      0       0      12        0.0%
BANK4              100      0       0      13        0.0%
BITBANK3           100      0       0      10        0.0%
BANK3              100      0       0      11        0.0%
BITBANK2           100      0       0       8        0.0%
BANK2              100      0       0       9        0.0%
BITBANK1           100      0       0       6        0.0%
BANK1              100      0       0       7        0.0%
BITBANK0            A0      0       0       4        0.0%
BANK0               A0      0       0       5        0.0%
BITCOMRAM           5F      0       0       0        0.0%
COMRAM              5F      E       F       1       15.8%
BITSFR               0      0       0     200        0.0%
SFR                  0      0       0     200        0.0%
STACK                0      0       0       2        0.0%
NULL                 0      0       0       0        0.0%
ABS                  0      0       F      20        0.0%
DATA                 0      0     1EF       3        0.0%
CODE                 0      0       0       0        0.0%


Microchip Technology PIC18 Macro Assembler V2.32 build 20210201212658 
Symbol Table                                                                                   Sun Sep 11 18:54:33 2022

                _escreve_caractere 7484                        _SSPSTATbits 000FC7  
               ?_escreve_caractere 0001                                 l75 7D46  
                               l78 7D94                                 l79 7D74  
                               l89 72A0                                 u10 7238  
                               u11 7234                                 u20 724E  
                               u21 724A                                 u30 726A  
                               u31 7266                                 u40 74D2  
                               u41 74CE                                l100 77BE  
                              l122 721E                                l220 7554  
                              l140 73E6                                l125 7430  
                              l133 7272                                l119 720E  
                              l223 758C                                l224 75CE  
                              l152 74D8                                l225 7596  
                              l217 7546                                l129 7256  
                              l242 722A                                l226 759E  
                              l227 75D8                                l219 754C  
                              l147 752E                                l244 7238  
                              l173 7480                                l181 7334  
                              l246 723A                                l158 736A  
                              l174 7482                                l193 73A6  
                              l169 7696                                l187 72D0  
                              l932 7222                                l940 7202  
                              l934 7226                                l942 7206  
                              l950 721C                                l944 720C  
                              l952 723E                                l960 7486  
                              l946 7212                                l954 724E  
                              l970 74C2                                l948 7216  
                              l956 725A                                l972 74D2  
                              l958 726A                                l966 748A  
                              l968 74C0                                u110 7322  
                              u111 731E                                u120 7334  
                              u121 7330                                u130 73D4  
                              u131 73D0                                u140 73E6  
                              u141 73E2                                u150 74FC  
                              u151 74F8                                u400 7480  
                              u160 7512                                u401 747C  
                              u161 750E                                u410 73A0  
                              u170 752E                                u411 739C  
                              u171 752A                                u340 736A  
                              u420 76E4                                u500 7DA6  
                              u341 7366                                u421 76E0  
                              u501 7DA2                                u350 7634  
                              u430 7722                                u510 7DBC  
                              u351 7630                                u431 771E  
                              u511 7DB8                                u360 7656  
                              u440 7760                                u361 7652  
                              u441 775C                                u370 766A  
                              u450 779E                                u371 7666  
                              u451 779A                                u380 7696  
                              u460 7D46                                u381 7692  
                              u461 7D42                                u390 72D0  
                              u470 7D54                                u391 72CC  
                              u471 7D50                                u607 7AAE  
                              u527 79C6                                u480 7D74  
                              u481 7D70                                u617 7AF2  
                              u537 79E0                                u490 7D82  
                              u491 7D7E                                u707 7C1E  
                              u627 7B0A                                u547 79FA  
                              u717 7C38                                u637 7B56  
                              u557 7A22                                u807 73FE  
                              u727 7C5A                                u647 7B6E  
                              u567 7A3E                                u737 7C7C  
                              u657 7B90                                u577 7A5A  
                              u747 7C9E                                u667 7BB0  
                              u587 7A78                                u757 7CC6  
                              u677 7BCE                                u597 7A96  
                              u767 7CEE                                u687 7BEC  
                              u777 7D1A                                u697 7C04  
                              u787 7D5A                                u797 7D88  
              ??_escreve_caractere 0003                                wreg 000FE8  
                    ??_Escrita_SPI 0001                               l1110 73C2  
                             l1102 73B8                               l1024 7274  
                             l1120 74E6                               l1112 73C4  
                             l1130 7500                               l1114 73D4  
                             l1060 740C                               l1132 7512  
                             l1116 73D6                               l1108 73BC  
                             l1070 742A                               l1062 7412  
                             l1054 73E8                               l1134 7516  
                             l1126 74EA                               l1118 74DA  
                             l1064 7418                               l1056 73F4  
                             l1072 7302                               l1136 751C  
                             l1128 74FC                               l1066 741E  
                             l1058 740A                               l1090 7322  
                             l1138 751E                               l1068 7424  
                             l1500 753A                               l1092 7324  
                             l1084 730A                               l1510 75A4  
                             l1502 753E                               l1086 7310  
                             l1078 7306                               l1094 73A8  
                             l1512 75D2                               l1600 779E  
                             l1088 7312                               l1096 73B4  
                             l1514 75D6                               l1506 755A  
                             l1450 734A                               l1602 77B2  
                             l1530 7442                               l1610 79BA  
                             l1452 734E                               l1540 746A  
                             l1524 7432                               l1700 7BDC  
                             l1620 79F0                               l1612 79BC  
                             l1604 79A0                               l1550 7388  
                             l1542 736E                               l1446 7336  
                             l1470 763C                               l1462 75E6  
                             l1454 75DA                               l1526 743E  
                             l1710 7C18                               l1702 7BE2  
                             l1630 7A34                               l1622 7A08  
                             l1614 79D4                               l1606 79A4  
                             l1552 738E                               l1544 7372  
                             l1448 733A                               l1480 7674  
                             l1472 7640                               l1464 7624  
                             l1456 75DE                               l1560 76B0  
                             l1536 744A                               l1528 7440  
                             l1720 7C4E                               l1712 7C28  
                             l1704 7BFA                               l1640 7A86  
                             l1632 7A4C                               l1624 7A0E  
                             l1616 79D6                               l1608 79B2  
                             l1554 7390                               l1546 7378  
                             l1490 72B8                               l1474 7656  
                             l1466 7634                               l1482 767A  
                             l1570 76E4                               l1562 76BC  
                             l1538 7466                               l1730 7C76  
                             l1722 7C54                               l1714 7C32  
                             l1706 7BFE                               l1650 7ABE  
                             l1642 7A8C                               l1634 7A50  
                             l1626 7A14                               l1618 79EE  
                             l1804 756E                               l1556 73A0  
                             l1548 737E                               l1492 72BE  
                             l1484 72A4                               l1476 765A  
                             l1468 7636                               l1580 7722  
                             l1572 76F8                               l1564 76C6  
                             l1740 7CA8                               l1732 7C86  
                             l1724 7C64                               l1716 7C42  
                             l1708 7C0E                               l1660 7AE8  
                             l1652 7AC4                               l1644 7AA4  
                             l1636 7A68                               l1628 7A30  
                             l1806 75B8                               l1494 72C0  
                             l1486 72A8                               l1478 766A  
                             l1590 7760                               l1582 7736  
                             l1574 7704                               l1566 76CC  
                             l1558 7698                               l1750 7CD6  
                             l1742 7CAE                               l1734 7C8C  
                             l1726 7C6A                               l1718 7C48  
                             l1670 7B20                               l1662 7B00  
                             l1654 7AD0                               l1646 7AA8  
                             l1638 7A6E                               l1496 7532  
                             l1488 72AE                               l1592 7774  
                             l1584 7742                               l1576 770A  
                             l1568 76D2                               l1760 7D04  
                             l1752 7CDC                               l1744 7CB4  
                             l1736 7C92                               l1728 7C70  
                             l1680 7B64                               l1672 7B30  
                             l1664 7B04                               l1656 7AD6  
                             l1648 7AB8                               l1498 7536  
                             l1594 7780                               l1586 7748  
                             l1578 7710                               l1770 7D30  
                             l1762 7D10                               l1754 7CE8  
                             l1746 7CC0                               l1738 7C98  
                             l1690 7B8A                               l1682 7B68  
                             l1674 7B36                               l1666 7B14  
                             l1658 7ADC                               l1596 7786  
                             l1588 774E                               l1780 7D64  
                             l1772 7D34                               l1764 7D28  
                             l1756 7CF8                               l1748 7CD0  
                             l1692 7B9A                               l1684 7B78  
                             l1676 7B3C                               l1668 7B1A  
                             l1598 778C                               l1790 7DA6  
                             l1782 7D66                               l1774 7D38  
                             l1766 7D2C                               l1758 7CFE  
                             l1694 7BA6                               l1686 7B7E  
                             l1678 7B4C                               l1792 7DAA  
                             l1768 7D2E                               l1696 7BBE  
                             l1688 7B84                               l1786 7D82  
                             l1778 7D54                               l1698 7BC4  
                             l1788 7D92                               STR_1 7FF3  
                             STR_2 7FBD                               STR_3 7FF3  
                             STR_4 7FBD                               STR_5 7FED  
                             STR_6 7FED                               STR_7 7FED  
                             STR_8 7FF9                               STR_9 7FC9  
                    ?_coordenada_x 0001                      ?_coordenada_y 0001  
                   _Inicializa_SPI 7530                               _main 79A0  
 __end_of_desenha_linha_horizontal 72D2                               fsr1h 000FE2  
                             indf2 000FDF                               fsr1l 000FE1  
                             fsr2l 000FD9                               prodh 000FF4  
                             prodl 000FF3                               start 0000  
        __end_of_escreve_caractere 74DA            __size_of_escreve_string 0036  
                     ___param_bank 000000                   ?_Envia_Instrucao 0001  
                  _Inicializa_5110 73E8                              ?_main 0001  
                            STR_10 7FC9                              STR_11 7FD2  
                            STR_12 7FD2                              STR_13 7FDB  
                            STR_14 7FDB                              STR_15 7FE4  
                            STR_16 7FE4                    ??_testa_display 0004  
                            _PORTA 000F80                              _PORTB 000F81  
                            _PORTC 000F82                              _PORTD 000F83  
                            _PORTE 000F84                              _TRISA 000F92  
                            _TRISB 000F93                              _TRISC 000F94  
                            _TRISD 000F95                              _TRISE 000F96  
                    ?_escreve_menu 0001             __end_of_Inicializa_SPI 75DA  
                            _opcao 000F                     ??_coordenada_x 0003  
                   ??_coordenada_y 0003                              tablat 000FF5  
                       _Envia_Dado 7210                              status 000FD8  
              __end_of_Escrita_SPI 723C                   _testa_caracteres 74DA  
                  __initialization 72D2                     testa_display@x 0005  
                   testa_display@y 0004                 Inicializa_SPI@modo 0005  
                     __end_of_main 7DC4                             ??_main 000D  
                    __activetblptr 000002                     ??_escreve_menu 000D  
                           _ADCON1 000FC1                    ?_Inicializa_SPI 0001  
          ?_desenha_linha_vertical 0004                 __size_of_Inic_Regs 002E  
                           _SSPBUF 000FC9         __size_of_escreve_caractere 0056  
          __end_of_Inicializa_5110 7432                   ??_imprime_imagem 0006  
              escreve_string_cor@i 000B                             _imagem 7DC5  
                           isa$std 000001  __size_of_desenha_linha_horizontal 0030  
        ?_desenha_linha_horizontal 0004                       __pdataBIGRAM 0620  
               _escreve_string_cor 75DA                       __mediumconst 7DC4  
  desenha_linha_vertical@posicao_x 0005    desenha_linha_vertical@posicao_y 0004  
                           tblptrh 000FF7                             tblptrl 000FF6  
                           tblptru 000FF8     __end_of_desenha_linha_vertical 73A8  
                      _Escrita_SPI 7220                ?_escreve_string_cor 0003  
                      ?_Envia_Dado 0001                         __accesstop 0060  
          __end_of__initialization 72F8                      ___rparam_used 000001  
           __size_of_limpa_display 0034                     _escreve_string 7336  
                   __pcstackCOMRAM 0001               imprime_imagem@imagem 0004  
                   Envia_Dado@byte 0002               __end_of_coordenada_x 7258  
             __end_of_coordenada_y 7274               ??_escreve_string_cor 0006  
                __end_of_Inic_Regs 72A2            Inicializa_SPI@f_amostra 0002  
           __end_of_escreve_string 736C                      coordenada_x@x 0003  
                    coordenada_y@y 0003               __end_of_escreve_menu 77C0  
                 ?_Inicializa_5110 0001                __size_of_Envia_Dado 0010  
                    _limpa_display 7302           __end_of_testa_caracteres 7530  
                          _SSPCON1 000FC6                            _SSPSTAT 000FC7  
                  imprime_imagem@x 0008                    ?_escreve_string 0009  
             escreve_string@string 0009                            __Hparam 0000  
                          __Lparam 0000                            __pcinit 72D2  
                          __ramtop 0800                            __ptext0 79A0  
                          __ptext1 73A8                            __ptext2 74DA  
                          __ptext3 7302                            __ptext4 7432  
                          __ptext5 7698                            __ptext6 75DA  
                          __ptext7 7336                            __ptext8 7484  
                          __ptext9 72A2                     ?_limpa_display 0001  
         __size_of_Envia_Instrucao 0010                   ??_Inicializa_SPI 0003  
            __end_of_testa_display 73E8               end_of_initialization 72F8  
                    __Lmediumconst 7DC4              __size_of_coordenada_x 001C  
            __size_of_coordenada_y 001C                            postdec1 000FE5  
                          postinc0 000FEE        desenha_linha_vertical@linha 0006  
                        _PORTBbits 000F81                          _PORTDbits 000F83  
                        _PORTEbits 000F84                          _TRISAbits 000F92  
                        _TRISBbits 000F93                          _TRISCbits 000F94  
                        _TRISDbits 000F95                          _TRISEbits 000F96  
                     ?_Escrita_SPI 0001                       _coordenada_x 723C  
                     _coordenada_y 7258              __size_of_escreve_menu 0128  
                     ??_Envia_Dado 0002                      __pidataBIGRAM 77C0  
                  ??_limpa_display 0003                     __end_of_imagem 7FBD  
               __end_of_Envia_Dado 7220                          _Inic_Regs 7274  
              start_initialization 72D2                       _escreve_menu 7698  
                ??_Envia_Instrucao 0002           _desenha_linha_horizontal 72A2  
      __size_of_escreve_string_cor 00BE  desenha_linha_horizontal@posicao_x 0005  
desenha_linha_horizontal@posicao_y 0004                         ?_Inic_Regs 0001  
          __size_of_imprime_imagem 0052                        __pbssCOMRAM 000F  
                ?_testa_caracteres 0001                   ??_escreve_string 000B  
               ??_testa_caracteres 0009                 escreve_caractere@i 0008  
         escreve_string_cor@string 0003                      __pmediumconst 7DC4  
         ??_desenha_linha_vertical 0005           __size_of_Inicializa_5110 004A  
                     _tabela_ascii 0620               __size_of_Escrita_SPI 001C  
           Envia_Instrucao@comando 0002                    Escrita_SPI@dado 0001  
                         _PIR1bits 000F9E                        ??_Inic_Regs 0001  
      escreve_string_cor@caractere 000A           Inicializa_SPI@modo_clock 0001  
                        copy_data0 72E6                           __Hrparam 0000  
       escreve_caractere@caractere 0007                           __Lrparam 0000  
           __size_of_testa_display 0040                    _Envia_Instrucao 7200  
  __size_of_desenha_linha_vertical 003C                     _imprime_imagem 7432  
            escreve_string_cor@cor 0005                           __ptext10 736C  
                         __ptext11 7258                           __ptext12 723C  
                         __ptext13 7210                           __ptext14 7530  
                         __ptext15 73E8                           __ptext16 7200  
                         __ptext17 7220                           __ptext18 7274  
                ??_Inicializa_5110 0003            __size_of_Inicializa_SPI 00AA  
                testa_caracteres@c 0009                      __size_of_main 0424  
    desenha_linha_horizontal@linha 0006         ??_desenha_linha_horizontal 0005  
                         isa$xinst 000000             __end_of_imprime_imagem 7484  
            __end_of_limpa_display 7336                      _testa_display 73A8  
           _desenha_linha_vertical 736C          __size_of_testa_caracteres 0056  
          __end_of_Envia_Instrucao 7210         __end_of_escreve_string_cor 7698  
                  ?_imprime_imagem 0004                     ?_testa_display 0001  
                      _SSPCON1bits 000FC6                     limpa_display@x 0004  
                   limpa_display@y 0003  
